
bomb：     文件格式 elf32-i386


Disassembly of section .init:

080486f4 <_init>:
 80486f4:	53                   	push   %ebx
 80486f5:	83 ec 08             	sub    $0x8,%esp
 80486f8:	e8 13 02 00 00       	call   8048910 <__x86.get_pc_thunk.bx>
 80486fd:	81 c3 03 39 00 00    	add    $0x3903,%ebx
 8048703:	8b 83 fc ff ff ff    	mov    -0x4(%ebx),%eax
 8048709:	85 c0                	test   %eax,%eax
 804870b:	74 05                	je     8048712 <_init+0x1e>
 804870d:	e8 be 01 00 00       	call   80488d0 <__gmon_start__@plt>
 8048712:	83 c4 08             	add    $0x8,%esp
 8048715:	5b                   	pop    %ebx
 8048716:	c3                   	ret    

Disassembly of section .plt:

08048720 <.plt>:
 8048720:	ff 35 04 c0 04 08    	pushl  0x804c004
 8048726:	ff 25 08 c0 04 08    	jmp    *0x804c008
 804872c:	00 00                	add    %al,(%eax)
	...

08048730 <read@plt>:
 8048730:	ff 25 0c c0 04 08    	jmp    *0x804c00c
 8048736:	68 00 00 00 00       	push   $0x0
 804873b:	e9 e0 ff ff ff       	jmp    8048720 <.plt>

08048740 <fflush@plt>:
 8048740:	ff 25 10 c0 04 08    	jmp    *0x804c010
 8048746:	68 08 00 00 00       	push   $0x8
 804874b:	e9 d0 ff ff ff       	jmp    8048720 <.plt>

08048750 <fgets@plt>:
 8048750:	ff 25 14 c0 04 08    	jmp    *0x804c014
 8048756:	68 10 00 00 00       	push   $0x10
 804875b:	e9 c0 ff ff ff       	jmp    8048720 <.plt>

08048760 <signal@plt>:
 8048760:	ff 25 18 c0 04 08    	jmp    *0x804c018
 8048766:	68 18 00 00 00       	push   $0x18
 804876b:	e9 b0 ff ff ff       	jmp    8048720 <.plt>

08048770 <sleep@plt>:
 8048770:	ff 25 1c c0 04 08    	jmp    *0x804c01c
 8048776:	68 20 00 00 00       	push   $0x20
 804877b:	e9 a0 ff ff ff       	jmp    8048720 <.plt>

08048780 <alarm@plt>:
 8048780:	ff 25 20 c0 04 08    	jmp    *0x804c020
 8048786:	68 28 00 00 00       	push   $0x28
 804878b:	e9 90 ff ff ff       	jmp    8048720 <.plt>

08048790 <__stack_chk_fail@plt>:
 8048790:	ff 25 24 c0 04 08    	jmp    *0x804c024
 8048796:	68 30 00 00 00       	push   $0x30
 804879b:	e9 80 ff ff ff       	jmp    8048720 <.plt>

080487a0 <strcpy@plt>:
 80487a0:	ff 25 28 c0 04 08    	jmp    *0x804c028
 80487a6:	68 38 00 00 00       	push   $0x38
 80487ab:	e9 70 ff ff ff       	jmp    8048720 <.plt>

080487b0 <getenv@plt>:
 80487b0:	ff 25 2c c0 04 08    	jmp    *0x804c02c
 80487b6:	68 40 00 00 00       	push   $0x40
 80487bb:	e9 60 ff ff ff       	jmp    8048720 <.plt>

080487c0 <puts@plt>:
 80487c0:	ff 25 30 c0 04 08    	jmp    *0x804c030
 80487c6:	68 48 00 00 00       	push   $0x48
 80487cb:	e9 50 ff ff ff       	jmp    8048720 <.plt>

080487d0 <__memmove_chk@plt>:
 80487d0:	ff 25 34 c0 04 08    	jmp    *0x804c034
 80487d6:	68 50 00 00 00       	push   $0x50
 80487db:	e9 40 ff ff ff       	jmp    8048720 <.plt>

080487e0 <exit@plt>:
 80487e0:	ff 25 38 c0 04 08    	jmp    *0x804c038
 80487e6:	68 58 00 00 00       	push   $0x58
 80487eb:	e9 30 ff ff ff       	jmp    8048720 <.plt>

080487f0 <__libc_start_@plt>:
 80487f0:	ff 25 3c c0 04 08    	jmp    *0x804c03c
 80487f6:	68 60 00 00 00       	push   $0x60
 80487fb:	e9 20 ff ff ff       	jmp    8048720 <.plt>

08048800 <write@plt>:
 8048800:	ff 25 40 c0 04 08    	jmp    *0x804c040
 8048806:	68 68 00 00 00       	push   $0x68
 804880b:	e9 10 ff ff ff       	jmp    8048720 <.plt>

08048810 <__isoc99_sscanf@plt>:
 8048810:	ff 25 44 c0 04 08    	jmp    *0x804c044
 8048816:	68 70 00 00 00       	push   $0x70
 804881b:	e9 00 ff ff ff       	jmp    8048720 <.plt>

08048820 <fopen@plt>:
 8048820:	ff 25 48 c0 04 08    	jmp    *0x804c048
 8048826:	68 78 00 00 00       	push   $0x78
 804882b:	e9 f0 fe ff ff       	jmp    8048720 <.plt>

08048830 <__errno_location@plt>:
 8048830:	ff 25 4c c0 04 08    	jmp    *0x804c04c
 8048836:	68 80 00 00 00       	push   $0x80
 804883b:	e9 e0 fe ff ff       	jmp    8048720 <.plt>

08048840 <__printf_chk@plt>:
 8048840:	ff 25 50 c0 04 08    	jmp    *0x804c050
 8048846:	68 88 00 00 00       	push   $0x88
 804884b:	e9 d0 fe ff ff       	jmp    8048720 <.plt>

08048850 <socket@plt>:
 8048850:	ff 25 54 c0 04 08    	jmp    *0x804c054
 8048856:	68 90 00 00 00       	push   $0x90
 804885b:	e9 c0 fe ff ff       	jmp    8048720 <.plt>

08048860 <__fprintf_chk@plt>:
 8048860:	ff 25 58 c0 04 08    	jmp    *0x804c058
 8048866:	68 98 00 00 00       	push   $0x98
 804886b:	e9 b0 fe ff ff       	jmp    8048720 <.plt>

08048870 <gethostbyname@plt>:
 8048870:	ff 25 5c c0 04 08    	jmp    *0x804c05c
 8048876:	68 a0 00 00 00       	push   $0xa0
 804887b:	e9 a0 fe ff ff       	jmp    8048720 <.plt>

08048880 <strtol@plt>:
 8048880:	ff 25 60 c0 04 08    	jmp    *0x804c060
 8048886:	68 a8 00 00 00       	push   $0xa8
 804888b:	e9 90 fe ff ff       	jmp    8048720 <.plt>

08048890 <connect@plt>:
 8048890:	ff 25 64 c0 04 08    	jmp    *0x804c064
 8048896:	68 b0 00 00 00       	push   $0xb0
 804889b:	e9 80 fe ff ff       	jmp    8048720 <.plt>

080488a0 <close@plt>:
 80488a0:	ff 25 68 c0 04 08    	jmp    *0x804c068
 80488a6:	68 b8 00 00 00       	push   $0xb8
 80488ab:	e9 70 fe ff ff       	jmp    8048720 <.plt>

080488b0 <__ctype_b_loc@plt>:
 80488b0:	ff 25 6c c0 04 08    	jmp    *0x804c06c
 80488b6:	68 c0 00 00 00       	push   $0xc0
 80488bb:	e9 60 fe ff ff       	jmp    8048720 <.plt>

080488c0 <__sprintf_chk@plt>:
 80488c0:	ff 25 70 c0 04 08    	jmp    *0x804c070
 80488c6:	68 c8 00 00 00       	push   $0xc8
 80488cb:	e9 50 fe ff ff       	jmp    8048720 <.plt>

Disassembly of section .plt.got:

080488d0 <__gmon_start__@plt>:
 80488d0:	ff 25 fc bf 04 08    	jmp    *0x804bffc
 80488d6:	66 90                	xchg   %ax,%ax

Disassembly of section .text:

080488e0 <_start>:
 80488e0:	31 ed                	xor    %ebp,%ebp
 80488e2:	5e                   	pop    %esi
 80488e3:	89 e1                	mov    %esp,%ecx
 80488e5:	83 e4 f0             	and    $0xfffffff0,%esp
 80488e8:	50                   	push   %eax
 80488e9:	54                   	push   %esp
 80488ea:	52                   	push   %edx
 80488eb:	68 70 9e 04 08       	push   $0x8049e70
 80488f0:	68 10 9e 04 08       	push   $0x8049e10
 80488f5:	51                   	push   %ecx
 80488f6:	56                   	push   %esi
 80488f7:	68 db 89 04 08       	push   $0x80489db
 80488fc:	e8 ef fe ff ff       	call   80487f0 <__libc_start_main@plt>
 8048901:	f4                   	hlt    
 8048902:	66 90                	xchg   %ax,%ax
 8048904:	66 90                	xchg   %ax,%ax
 8048906:	66 90                	xchg   %ax,%ax
 8048908:	66 90                	xchg   %ax,%ax
 804890a:	66 90                	xchg   %ax,%ax
 804890c:	66 90                	xchg   %ax,%ax
 804890e:	66 90                	xchg   %ax,%ax

08048910 <__x86.get_pc_thunk.bx>:
 8048910:	8b 1c 24             	mov    (%esp),%ebx
 8048913:	c3                   	ret    
 8048914:	66 90                	xchg   %ax,%ax
 8048916:	66 90                	xchg   %ax,%ax
 8048918:	66 90                	xchg   %ax,%ax
 804891a:	66 90                	xchg   %ax,%ax
 804891c:	66 90                	xchg   %ax,%ax
 804891e:	66 90                	xchg   %ax,%ax

08048920 <deregister_tm_clones>:
 8048920:	b8 a3 c3 04 08       	mov    $0x804c3a3,%eax
 8048925:	2d a0 c3 04 08       	sub    $0x804c3a0,%eax
 804892a:	83 f8 06             	cmp    $0x6,%eax
 804892d:	76 1a                	jbe    8048949 <deregister_tm_clones+0x29>
 804892f:	b8 00 00 00 00       	mov    $0x0,%eax
 8048934:	85 c0                	test   %eax,%eax
 8048936:	74 11                	je     8048949 <deregister_tm_clones+0x29>
 8048938:	55                   	push   %ebp
 8048939:	89 e5                	mov    %esp,%ebp
 804893b:	83 ec 14             	sub    $0x14,%esp
 804893e:	68 a0 c3 04 08       	push   $0x804c3a0
 8048943:	ff d0                	call   *%eax
 8048945:	83 c4 10             	add    $0x10,%esp
 8048948:	c9                   	leave  
 8048949:	f3 c3                	repz ret 
 804894b:	90                   	nop
 804894c:	8d 74 26 00          	lea    0x0(%esi,%eiz,1),%esi

08048950 <register_tm_clones>:
 8048950:	b8 a0 c3 04 08       	mov    $0x804c3a0,%eax
 8048955:	2d a0 c3 04 08       	sub    $0x804c3a0,%eax
 804895a:	c1 f8 02             	sar    $0x2,%eax
 804895d:	89 c2                	mov    %eax,%edx
 804895f:	c1 ea 1f             	shr    $0x1f,%edx
 8048962:	01 d0                	add    %edx,%eax
 8048964:	d1 f8                	sar    %eax
 8048966:	74 1b                	je     8048983 <register_tm_clones+0x33>
 8048968:	ba 00 00 00 00       	mov    $0x0,%edx
 804896d:	85 d2                	test   %edx,%edx
 804896f:	74 12                	je     8048983 <register_tm_clones+0x33>
 8048971:	55                   	push   %ebp
 8048972:	89 e5                	mov    %esp,%ebp
 8048974:	83 ec 10             	sub    $0x10,%esp
 8048977:	50                   	push   %eax
 8048978:	68 a0 c3 04 08       	push   $0x804c3a0
 804897d:	ff d2                	call   *%edx
 804897f:	83 c4 10             	add    $0x10,%esp
 8048982:	c9                   	leave  
 8048983:	f3 c3                	repz ret 
 8048985:	8d 74 26 00          	lea    0x0(%esi,%eiz,1),%esi
 8048989:	8d bc 27 00 00 00 00 	lea    0x0(%edi,%eiz,1),%edi

08048990 <__do_global_dtors_aux>:
 8048990:	80 3d c8 c3 04 08 00 	cmpb   $0x0,0x804c3c8
 8048997:	75 13                	jne    80489ac <__do_global_dtors_aux+0x1c>
 8048999:	55                   	push   %ebp
 804899a:	89 e5                	mov    %esp,%ebp
 804899c:	83 ec 08             	sub    $0x8,%esp
 804899f:	e8 7c ff ff ff       	call   8048920 <deregister_tm_clones>
 80489a4:	c6 05 c8 c3 04 08 01 	movb   $0x1,0x804c3c8
 80489ab:	c9                   	leave  
 80489ac:	f3 c3                	repz ret 
 80489ae:	66 90                	xchg   %ax,%ax

080489b0 <frame_dummy>:
 80489b0:	b8 10 bf 04 08       	mov    $0x804bf10,%eax
 80489b5:	8b 10                	mov    (%eax),%edx
 80489b7:	85 d2                	test   %edx,%edx
 80489b9:	75 05                	jne    80489c0 <frame_dummy+0x10>
 80489bb:	eb 93                	jmp    8048950 <register_tm_clones>
 80489bd:	8d 76 00             	lea    0x0(%esi),%esi
 80489c0:	ba 00 00 00 00       	mov    $0x0,%edx
 80489c5:	85 d2                	test   %edx,%edx
 80489c7:	74 f2                	je     80489bb <frame_dummy+0xb>
 80489c9:	55                   	push   %ebp
 80489ca:	89 e5                	mov    %esp,%ebp
 80489cc:	83 ec 14             	sub    $0x14,%esp
 80489cf:	50                   	push   %eax
 80489d0:	ff d2                	call   *%edx
 80489d2:	83 c4 10             	add    $0x10,%esp
 80489d5:	c9                   	leave  
 80489d6:	e9 75 ff ff ff       	jmp    8048950 <register_tm_clones>

080489db <main>:
 80489db:	8d 4c 24 04          	lea    0x4(%esp),%ecx
 80489df:	83 e4 f0             	and    $0xfffffff0,%esp
 80489e2:	ff 71 fc             	pushl  -0x4(%ecx)
 80489e5:	55                   	push   %ebp
 80489e6:	89 e5                	mov    %esp,%ebp
 80489e8:	53                   	push   %ebx
 80489e9:	51                   	push   %ecx
 80489ea:	8b 01                	mov    (%ecx),%eax
 80489ec:	8b 59 04             	mov    0x4(%ecx),%ebx
 80489ef:	83 f8 01             	cmp    $0x1,%eax
 80489f2:	0f 84 01 01 00 00    	je     8048af9 <main+0x11e>
 80489f8:	83 f8 02             	cmp    $0x2,%eax
 80489fb:	0f 85 24 01 00 00    	jne    8048b25 <main+0x14a>
 8048a01:	83 ec 08             	sub    $0x8,%esp
 8048a04:	68 a8 9e 04 08       	push   $0x8049ea8
 8048a09:	ff 73 04             	pushl  0x4(%ebx)
 8048a0c:	e8 0f fe ff ff       	call   8048820 <fopen@plt>
 8048a11:	a3 d0 c3 04 08       	mov    %eax,0x804c3d0
 8048a16:	83 c4 10             	add    $0x10,%esp
 8048a19:	85 c0                	test   %eax,%eax
 8048a1b:	0f 84 e7 00 00 00    	je     8048b08 <main+0x12d>
 8048a21:	e8 0a 06 00 00       	call   8049030 <initialize_bomb>
 8048a26:	83 ec 0c             	sub    $0xc,%esp
 8048a29:	68 2c 9f 04 08       	push   $0x8049f2c
 8048a2e:	e8 8d fd ff ff       	call   80487c0 <puts@plt>
 8048a33:	c7 04 24 68 9f 04 08 	movl   $0x8049f68,(%esp)
 8048a3a:	e8 81 fd ff ff       	call   80487c0 <puts@plt>
 8048a3f:	e8 dc 06 00 00       	call   8049120 <read_line>
 8048a44:	89 04 24             	mov    %eax,(%esp)
 8048a47:	e8 f6 00 00 00       	call   8048b42 <phase_1>
 8048a4c:	e8 ce 07 00 00       	call   804921f <phase_defused>
 8048a51:	c7 04 24 94 9f 04 08 	movl   $0x8049f94,(%esp)
 8048a58:	e8 63 fd ff ff       	call   80487c0 <puts@plt>
 8048a5d:	e8 be 06 00 00       	call   8049120 <read_line>
 8048a62:	89 04 24             	mov    %eax,(%esp)
 8048a65:	e8 fb 00 00 00       	call   8048b65 <phase_2>
 8048a6a:	e8 b0 07 00 00       	call   804921f <phase_defused>
 8048a6f:	c7 04 24 e1 9e 04 08 	movl   $0x8049ee1,(%esp)
 8048a76:	e8 45 fd ff ff       	call   80487c0 <puts@plt>
 8048a7b:	e8 a0 06 00 00       	call   8049120 <read_line>
 8048a80:	89 04 24             	mov    %eax,(%esp)
 8048a83:	e8 4c 01 00 00       	call   8048bd4 <phase_3>
 8048a88:	e8 92 07 00 00       	call   804921f <phase_defused>
 8048a8d:	c7 04 24 ff 9e 04 08 	movl   $0x8049eff,(%esp)
 8048a94:	e8 27 fd ff ff       	call   80487c0 <puts@plt>
 8048a99:	e8 82 06 00 00       	call   8049120 <read_line>
 8048a9e:	89 04 24             	mov    %eax,(%esp)
 8048aa1:	e8 33 02 00 00       	call   8048cd9 <phase_4>
 8048aa6:	e8 74 07 00 00       	call   804921f <phase_defused>
 8048aab:	c7 04 24 c0 9f 04 08 	movl   $0x8049fc0,(%esp)
 8048ab2:	e8 09 fd ff ff       	call   80487c0 <puts@plt>
 8048ab7:	e8 64 06 00 00       	call   8049120 <read_line>
 8048abc:	89 04 24             	mov    %eax,(%esp)
 8048abf:	e8 8e 02 00 00       	call   8048d52 <phase_5>
 8048ac4:	e8 56 07 00 00       	call   804921f <phase_defused>
 8048ac9:	c7 04 24 0e 9f 04 08 	movl   $0x8049f0e,(%esp)
 8048ad0:	e8 eb fc ff ff       	call   80487c0 <puts@plt>
 8048ad5:	e8 46 06 00 00       	call   8049120 <read_line>
 8048ada:	89 04 24             	mov    %eax,(%esp)
 8048add:	e8 b8 02 00 00       	call   8048d9a <phase_6>
 8048ae2:	e8 38 07 00 00       	call   804921f <phase_defused>
 8048ae7:	83 c4 10             	add    $0x10,%esp
 8048aea:	b8 00 00 00 00       	mov    $0x0,%eax
 8048aef:	8d 65 f8             	lea    -0x8(%ebp),%esp
 8048af2:	59                   	pop    %ecx
 8048af3:	5b                   	pop    %ebx
 8048af4:	5d                   	pop    %ebp
 8048af5:	8d 61 fc             	lea    -0x4(%ecx),%esp
 8048af8:	c3                   	ret    
 8048af9:	a1 c0 c3 04 08       	mov    0x804c3c0,%eax
 8048afe:	a3 d0 c3 04 08       	mov    %eax,0x804c3d0
 8048b03:	e9 19 ff ff ff       	jmp    8048a21 <main+0x46>
 8048b08:	ff 73 04             	pushl  0x4(%ebx)
 8048b0b:	ff 33                	pushl  (%ebx)
 8048b0d:	68 aa 9e 04 08       	push   $0x8049eaa
 8048b12:	6a 01                	push   $0x1
 8048b14:	e8 27 fd ff ff       	call   8048840 <__printf_chk@plt>
 8048b19:	c7 04 24 08 00 00 00 	movl   $0x8,(%esp)
 8048b20:	e8 bb fc ff ff       	call   80487e0 <exit@plt>
 8048b25:	83 ec 04             	sub    $0x4,%esp
 8048b28:	ff 33                	pushl  (%ebx)
 8048b2a:	68 c7 9e 04 08       	push   $0x8049ec7
 8048b2f:	6a 01                	push   $0x1
 8048b31:	e8 0a fd ff ff       	call   8048840 <__printf_chk@plt>
 8048b36:	c7 04 24 08 00 00 00 	movl   $0x8,(%esp)
 8048b3d:	e8 9e fc ff ff       	call   80487e0 <exit@plt>

08048b42 <phase_1>:
 8048b42:	83 ec 14             	sub    $0x14,%esp
 8048b45:	68 e4 9f 04 08       	push   $0x8049fe4
 8048b4a:	ff 74 24 1c          	pushl  0x1c(%esp)
 8048b4e:	e8 78 04 00 00       	call   8048fcb <strings_not_equal>
 8048b53:	83 c4 10             	add    $0x10,%esp
 8048b56:	85 c0                	test   %eax,%eax
 8048b58:	75 04                	jne    8048b5e <phase_1+0x1c>
 8048b5a:	83 c4 0c             	add    $0xc,%esp
 8048b5d:	c3                   	ret    
 8048b5e:	e8 5d 05 00 00       	call   80490c0 <explode_bomb>
 8048b63:	eb f5                	jmp    8048b5a <phase_1+0x18>

08048b65 <phase_2>:
 8048b65:	56                   	push   %esi
 8048b66:	53                   	push   %ebx
 8048b67:	83 ec 2c             	sub    $0x2c,%esp
 8048b6a:	65 a1 14 00 00 00    	mov    %gs:0x14,%eax
 8048b70:	89 44 24 24          	mov    %eax,0x24(%esp)
 8048b74:	31 c0                	xor    %eax,%eax
 8048b76:	8d 44 24 0c          	lea    0xc(%esp),%eax
 8048b7a:	50                   	push   %eax
 8048b7b:	ff 74 24 3c          	pushl  0x3c(%esp)
 8048b7f:	e8 61 05 00 00       	call   80490e5 <read_six_numbers>
 8048b84:	83 c4 10             	add    $0x10,%esp
 8048b87:	83 7c 24 04 00       	cmpl   $0x0,0x4(%esp)
 8048b8c:	75 07                	jne    8048b95 <phase_2+0x30>
 8048b8e:	83 7c 24 08 01       	cmpl   $0x1,0x8(%esp)
 8048b93:	74 05                	je     8048b9a <phase_2+0x35>
 8048b95:	e8 26 05 00 00       	call   80490c0 <explode_bomb>
 8048b9a:	8d 5c 24 04          	lea    0x4(%esp),%ebx
 8048b9e:	8d 74 24 14          	lea    0x14(%esp),%esi
 8048ba2:	eb 07                	jmp    8048bab <phase_2+0x46>
 8048ba4:	83 c3 04             	add    $0x4,%ebx
 8048ba7:	39 f3                	cmp    %esi,%ebx
 8048ba9:	74 11                	je     8048bbc <phase_2+0x57>
 8048bab:	8b 43 04             	mov    0x4(%ebx),%eax
 8048bae:	03 03                	add    (%ebx),%eax
 8048bb0:	39 43 08             	cmp    %eax,0x8(%ebx)
 8048bb3:	74 ef                	je     8048ba4 <phase_2+0x3f>
 8048bb5:	e8 06 05 00 00       	call   80490c0 <explode_bomb>
 8048bba:	eb e8                	jmp    8048ba4 <phase_2+0x3f>
 8048bbc:	8b 44 24 1c          	mov    0x1c(%esp),%eax
 8048bc0:	65 33 05 14 00 00 00 	xor    %gs:0x14,%eax
 8048bc7:	75 06                	jne    8048bcf <phase_2+0x6a>
 8048bc9:	83 c4 24             	add    $0x24,%esp
 8048bcc:	5b                   	pop    %ebx
 8048bcd:	5e                   	pop    %esi
 8048bce:	c3                   	ret    
 8048bcf:	e8 bc fb ff ff       	call   8048790 <__stack_chk_fail@plt>

08048bd4 <phase_3>:
 8048bd4:	83 ec 1c             	sub    $0x1c,%esp
 8048bd7:	65 a1 14 00 00 00    	mov    %gs:0x14,%eax
 8048bdd:	89 44 24 0c          	mov    %eax,0xc(%esp)
 8048be1:	31 c0                	xor    %eax,%eax
 8048be3:	8d 44 24 08          	lea    0x8(%esp),%eax
 8048be7:	50                   	push   %eax
 8048be8:	8d 44 24 08          	lea    0x8(%esp),%eax
 8048bec:	50                   	push   %eax
 8048bed:	68 af a1 04 08       	push   $0x804a1af
 8048bf2:	ff 74 24 2c          	pushl  0x2c(%esp)
 8048bf6:	e8 15 fc ff ff       	call   8048810 <__isoc99_sscanf@plt>
 8048bfb:	83 c4 10             	add    $0x10,%esp
 8048bfe:	83 f8 01             	cmp    $0x1,%eax
 8048c01:	7e 12                	jle    8048c15 <phase_3+0x41>
 8048c03:	83 7c 24 04 07       	cmpl   $0x7,0x4(%esp)                                        	
 8048c08:	77 43                	ja     8048c4d <phase_3+0x79>
 8048c0a:	8b 44 24 04          	mov    0x4(%esp),%eax
 8048c0e:	ff 24 85 40 a0 04 08 	jmp    *0x804a040(,%eax,4)
 8048c15:	e8 a6 04 00 00       	call   80490c0 <explode_bomb>
 8048c1a:	eb e7                	jmp    8048c03 <phase_3+0x2f>
 8048c1c:	b8 a0 03 00 00       	mov    $0x3a0,%eax
 8048c21:	eb 3b                	jmp    8048c5e <phase_3+0x8a>
 8048c23:	b8 fe 00 00 00       	mov    $0xfe,%eax
 8048c28:	eb 34                	jmp    8048c5e <phase_3+0x8a>
 8048c2a:	b8 5a 01 00 00       	mov    $0x15a,%eax
 8048c2f:	eb 2d                	jmp    8048c5e <phase_3+0x8a>
 8048c31:	b8 39 03 00 00       	mov    $0x339,%eax
 8048c36:	eb 26                	jmp    8048c5e <phase_3+0x8a>
 8048c38:	b8 89 03 00 00       	mov    $0x389,%eax
 8048c3d:	eb 1f                	jmp    8048c5e <phase_3+0x8a>
 8048c3f:	b8 2a 01 00 00       	mov    $0x12a,%eax
 8048c44:	eb 18                	jmp    8048c5e <phase_3+0x8a>
 8048c46:	b8 ee 00 00 00       	mov    $0xee,%eax
 8048c4b:	eb 11                	jmp    8048c5e <phase_3+0x8a>
 8048c4d:	e8 6e 04 00 00       	call   80490c0 <explode_bomb>
 8048c52:	b8 00 00 00 00       	mov    $0x0,%eax
 8048c57:	eb 05                	jmp    8048c5e <phase_3+0x8a>
 8048c59:	b8 1e 02 00 00       	mov    $0x21e,%eax
 8048c5e:	3b 44 24 08          	cmp    0x8(%esp),%eax
 8048c62:	74 05                	je     8048c69 <phase_3+0x95>
 8048c64:	e8 57 04 00 00       	call   80490c0 <explode_bomb>
 8048c69:	8b 44 24 0c          	mov    0xc(%esp),%eax
 8048c6d:	65 33 05 14 00 00 00 	xor    %gs:0x14,%eax
 8048c74:	75 04                	jne    8048c7a <phase_3+0xa6>
 8048c76:	83 c4 1c             	add    $0x1c,%esp
 8048c79:	c3                   	ret    
 8048c7a:	e8 11 fb ff ff       	call   8048790 <__stack_chk_fail@plt>

08048c7f <func4>:
 8048c7f:	56                   	push   %esi
 8048c80:	53                   	push   %ebx
 8048c81:	83 ec 04             	sub    $0x4,%esp
 8048c84:	8b 44 24 10          	mov    0x10(%esp),%eax
 8048c88:	8b 54 24 14          	mov    0x14(%esp),%edx
 8048c8c:	8b 4c 24 18          	mov    0x18(%esp),%ecx
 8048c90:	89 ce                	mov    %ecx,%esi
 8048c92:	29 d6                	sub    %edx,%esi
 8048c94:	89 f3                	mov    %esi,%ebx
 8048c96:	c1 eb 1f             	shr    $0x1f,%ebx
 8048c99:	01 f3                	add    %esi,%ebx
 8048c9b:	d1 fb                	sar    %ebx
 8048c9d:	01 d3                	add    %edx,%ebx
 8048c9f:	39 c3                	cmp    %eax,%ebx
 8048ca1:	7f 0c                	jg     8048caf <func4+0x30>
 8048ca3:	39 c3                	cmp    %eax,%ebx
 8048ca5:	7c 1d                	jl     8048cc4 <func4+0x45>
 8048ca7:	89 d8                	mov    %ebx,%eax
 8048ca9:	83 c4 04             	add    $0x4,%esp
 8048cac:	5b                   	pop    %ebx
 8048cad:	5e                   	pop    %esi
 8048cae:	c3                   	ret    
 8048caf:	83 ec 04             	sub    $0x4,%esp
 8048cb2:	8d 4b ff             	lea    -0x1(%ebx),%ecx
 8048cb5:	51                   	push   %ecx
 8048cb6:	52                   	push   %edx
 8048cb7:	50                   	push   %eax
 8048cb8:	e8 c2 ff ff ff       	call   8048c7f <func4>
 8048cbd:	83 c4 10             	add    $0x10,%esp
 8048cc0:	01 c3                	add    %eax,%ebx
 8048cc2:	eb e3                	jmp    8048ca7 <func4+0x28>
 8048cc4:	83 ec 04             	sub    $0x4,%esp
 8048cc7:	51                   	push   %ecx
 8048cc8:	8d 53 01             	lea    0x1(%ebx),%edx
 8048ccb:	52                   	push   %edx
 8048ccc:	50                   	push   %eax
 8048ccd:	e8 ad ff ff ff       	call   8048c7f <func4>
 8048cd2:	83 c4 10             	add    $0x10,%esp
 8048cd5:	01 c3                	add    %eax,%ebx
 8048cd7:	eb ce                	jmp    8048ca7 <func4+0x28>
08048cd9 <phase_4>:
 8048cd9:	83 ec 1c             	sub    $0x1c,%esp
 8048cdc:	65 a1 14 00 00 00    	mov    %gs:0x14,%eax
 8048ce2:	89 44 24 0c          	mov    %eax,0xc(%esp)
 8048ce6:	31 c0                	xor    %eax,%eax
 8048ce8:	8d 44 24 08          	lea    0x8(%esp),%eax
 8048cec:	50                   	push   %eax
 8048ced:	8d 44 24 08          	lea    0x8(%esp),%eax
 8048cf1:	50                   	push   %eax
 8048cf2:	68 af a1 04 08       	push   $0x804a1af
 8048cf7:	ff 74 24 2c          	pushl  0x2c(%esp)
 8048cfb:	e8 10 fb ff ff       	call   8048810 <__isoc99_sscanf@plt>
 8048d00:	83 c4 10             	add    $0x10,%esp
 8048d03:	83 f8 02             	cmp    $0x2,%eax
 8048d06:	74 33                	je     8048d3b <phase_4+0x62>
 8048d08:	e8 b3 03 00 00       	call   80490c0 <explode_bomb>
 8048d0d:	83 ec 04             	sub    $0x4,%esp
 8048d10:	6a 0e                	push   $0xe
 8048d12:	6a 00                	push   $0x0
 8048d14:	ff 74 24 10          	pushl  0x10(%esp)
 8048d18:	e8 62 ff ff ff       	call   8048c7f <func4>
 8048d1d:	83 c4 10             	add    $0x10,%esp
 8048d20:	83 f8 15             	cmp    $0x15,%eax
 8048d23:	74 1f                	je     8048d44 <phase_4+0x6b>
 8048d25:	e8 96 03 00 00       	call   80490c0 <explode_bomb>
 8048d2a:	8b 44 24 0c          	mov    0xc(%esp),%eax
 8048d2e:	65 33 05 14 00 00 00 	xor    %gs:0x14,%eax
 8048d35:	75 16                	jne    8048d4d <phase_4+0x74>
 8048d37:	83 c4 1c             	add    $0x1c,%esp
 8048d3a:	c3                   	ret    
 8048d3b:	83 7c 24 04 0e       	cmpl   $0xe,0x4(%esp)
 8048d40:	76 cb                	jbe    8048d0d <phase_4+0x34>
 8048d42:	eb c4                	jmp    8048d08 <phase_4+0x2f>
 8048d44:	83 7c 24 08 15       	cmpl   $0x15,0x8(%esp)
 8048d49:	75 da                	jne    8048d25 <phase_4+0x4c>
 8048d4b:	eb dd                	jmp    8048d2a <phase_4+0x51>
 8048d4d:	e8 3e fa ff ff       	call   8048790 <__stack_chk_fail@plt>

08048d52 <phase_5>:
 8048d52:	53                   	push   %ebx
 8048d53:	83 ec 14             	sub    $0x14,%esp
 8048d56:	8b 5c 24 1c          	mov    0x1c(%esp),%ebx
 8048d5a:	53                   	push   %ebx
 8048d5b:	e8 4c 02 00 00       	call   8048fac <string_length>
 8048d60:	83 c4 10             	add    $0x10,%esp
 8048d63:	83 f8 06             	cmp    $0x6,%eax
 8048d66:	74 05                	je     8048d6d <phase_5+0x1b>
 8048d68:	e8 53 03 00 00       	call   80490c0 <explode_bomb>
 8048d6d:	89 d8                	mov    %ebx,%eax
 8048d6f:	83 c3 06             	add    $0x6,%ebx
 8048d72:	b9 00 00 00 00       	mov    $0x0,%ecx
 8048d77:	0f b6 10             	movzbl (%eax),%edx
 8048d7a:	83 e2 0f             	and    $0xf,%edx
 8048d7d:	03 0c 95 60 a0 04 08 	add    0x804a060(,%edx,4),%ecx
 8048d84:	83 c0 01             	add    $0x1,%eax
 8048d87:	39 d8                	cmp    %ebx,%eax
 8048d89:	75 ec                	jne    8048d77 <phase_5+0x25>
 8048d8b:	83 f9 2a             	cmp    $0x2a,%ecx
 8048d8e:	74 05                	je     8048d95 <phase_5+0x43>
 8048d90:	e8 2b 03 00 00       	call   80490c0 <explode_bomb>
 8048d95:	83 c4 08             	add    $0x8,%esp
 8048d98:	5b                   	pop    %ebx
 8048d99:	c3                   	ret    

08048d9a <phase_6>:
 8048d9a:	56                   	push   %esi
 8048d9b:	53                   	push   %ebx
 8048d9c:	83 ec 4c             	sub    $0x4c,%esp
 8048d9f:	65 a1 14 00 00 00    	mov    %gs:0x14,%eax
 8048da5:	89 44 24 44          	mov    %eax,0x44(%esp)
 8048da9:	31 c0                	xor    %eax,%eax
 8048dab:	8d 44 24 14          	lea    0x14(%esp),%eax
 8048daf:	50                   	push   %eax
 8048db0:	ff 74 24 5c          	pushl  0x5c(%esp)
 8048db4:	e8 2c 03 00 00       	call   80490e5 <read_six_numbers>
 8048db9:	83 c4 10             	add    $0x10,%esp
 8048dbc:	be 00 00 00 00       	mov    $0x0,%esi
 8048dc1:	eb 1c                	jmp    8048ddf <phase_6+0x45>
 8048dc3:	83 c6 01             	add    $0x1,%esi
 8048dc6:	83 fe 06             	cmp    $0x6,%esi
 8048dc9:	74 2e                	je     8048df9 <phase_6+0x5f>
 8048dcb:	89 f3                	mov    %esi,%ebx
 8048dcd:	8b 44 9c 0c          	mov    0xc(%esp,%ebx,4),%eax
 8048dd1:	39 44 b4 08          	cmp    %eax,0x8(%esp,%esi,4)
 8048dd5:	74 1b                	je     8048df2 <phase_6+0x58>
 8048dd7:	83 c3 01             	add    $0x1,%ebx
 8048dda:	83 fb 05             	cmp    $0x5,%ebx
 8048ddd:	7e ee                	jle    8048dcd <phase_6+0x33>
 8048ddf:	8b 44 b4 0c          	mov    0xc(%esp,%esi,4),%eax
 8048de3:	83 e8 01             	sub    $0x1,%eax
 8048de6:	83 f8 05             	cmp    $0x5,%eax
 8048de9:	76 d8                	jbe    8048dc3 <phase_6+0x29>
 8048deb:	e8 d0 02 00 00       	call   80490c0 <explode_bomb>
 8048df0:	eb d1                	jmp    8048dc3 <phase_6+0x29>
 8048df2:	e8 c9 02 00 00       	call   80490c0 <explode_bomb>
 8048df7:	eb de                	jmp    8048dd7 <phase_6+0x3d>
 8048df9:	bb 00 00 00 00       	mov    $0x0,%ebx
 8048dfe:	89 de                	mov    %ebx,%esi
 8048e00:	8b 4c 9c 0c          	mov    0xc(%esp,%ebx,4),%ecx
 8048e04:	b8 01 00 00 00       	mov    $0x1,%eax
 8048e09:	ba 3c c1 04 08       	mov    $0x804c13c,%edx
 8048e0e:	83 f9 01             	cmp    $0x1,%ecx
 8048e11:	7e 0a                	jle    8048e1d <phase_6+0x83>
 8048e13:	8b 52 08             	mov    0x8(%edx),%edx
 8048e16:	83 c0 01             	add    $0x1,%eax
 8048e19:	39 c8                	cmp    %ecx,%eax
 8048e1b:	75 f6                	jne    8048e13 <phase_6+0x79>
 8048e1d:	89 54 b4 24          	mov    %edx,0x24(%esp,%esi,4)
 8048e21:	83 c3 01             	add    $0x1,%ebx
 8048e24:	83 fb 06             	cmp    $0x6,%ebx
 8048e27:	75 d5                	jne    8048dfe <phase_6+0x64>
 8048e29:	8b 5c 24 24          	mov    0x24(%esp),%ebx
 8048e2d:	89 d9                	mov    %ebx,%ecx
 8048e2f:	b8 01 00 00 00       	mov    $0x1,%eax
 8048e34:	8b 54 84 24          	mov    0x24(%esp,%eax,4),%edx
 8048e38:	89 51 08             	mov    %edx,0x8(%ecx)
 8048e3b:	83 c0 01             	add    $0x1,%eax
 8048e3e:	89 d1                	mov    %edx,%ecx
 8048e40:	83 f8 06             	cmp    $0x6,%eax
 8048e43:	75 ef                	jne    8048e34 <phase_6+0x9a>
 8048e45:	c7 42 08 00 00 00 00 	movl   $0x0,0x8(%edx)
 8048e4c:	be 05 00 00 00       	mov    $0x5,%esi
 8048e51:	eb 08                	jmp    8048e5b <phase_6+0xc1>
 8048e53:	8b 5b 08             	mov    0x8(%ebx),%ebx
 8048e56:	83 ee 01             	sub    $0x1,%esi
 8048e59:	74 10                	je     8048e6b <phase_6+0xd1>
 8048e5b:	8b 43 08             	mov    0x8(%ebx),%eax
 8048e5e:	8b 00                	mov    (%eax),%eax
 8048e60:	39 03                	cmp    %eax,(%ebx)
 8048e62:	7e ef                	jle    8048e53 <phase_6+0xb9>
 8048e64:	e8 57 02 00 00       	call   80490c0 <explode_bomb>
 8048e69:	eb e8                	jmp    8048e53 <phase_6+0xb9>
 8048e6b:	8b 44 24 3c          	mov    0x3c(%esp),%eax
 8048e6f:	65 33 05 14 00 00 00 	xor    %gs:0x14,%eax
 8048e76:	75 06                	jne    8048e7e <phase_6+0xe4>
 8048e78:	83 c4 44             	add    $0x44,%esp
 8048e7b:	5b                   	pop    %ebx
 8048e7c:	5e                   	pop    %esi
 8048e7d:	c3                   	ret    
 8048e7e:	e8 0d f9 ff ff       	call   8048790 <__stack_chk_fail@plt>

08048e83 <fun7>:
 8048e83:	53                   	push   %ebx
 8048e84:	83 ec 08             	sub    $0x8,%esp
 8048e87:	8b 54 24 10          	mov    0x10(%esp),%edx
 8048e8b:	8b 4c 24 14          	mov    0x14(%esp),%ecx
 8048e8f:	85 d2                	test   %edx,%edx
 8048e91:	74 3a                	je     8048ecd <fun7+0x4a>
 8048e93:	8b 1a                	mov    (%edx),%ebx
 8048e95:	39 cb                	cmp    %ecx,%ebx
 8048e97:	7f 21                	jg     8048eba <fun7+0x37>
 8048e99:	b8 00 00 00 00       	mov    $0x0,%eax
 8048e9e:	39 cb                	cmp    %ecx,%ebx
 8048ea0:	74 13                	je     8048eb5 <fun7+0x32>
 8048ea2:	83 ec 08             	sub    $0x8,%esp
 8048ea5:	51                   	push   %ecx
 8048ea6:	ff 72 08             	pushl  0x8(%edx)
 8048ea9:	e8 d5 ff ff ff       	call   8048e83 <fun7>
 8048eae:	83 c4 10             	add    $0x10,%esp
 8048eb1:	8d 44 00 01          	lea    0x1(%eax,%eax,1),%eax
 8048eb5:	83 c4 08             	add    $0x8,%esp
 8048eb8:	5b                   	pop    %ebx
 8048eb9:	c3                   	ret    
 8048eba:	83 ec 08             	sub    $0x8,%esp
 8048ebd:	51                   	push   %ecx
 8048ebe:	ff 72 04             	pushl  0x4(%edx)
 8048ec1:	e8 bd ff ff ff       	call   8048e83 <fun7>
 8048ec6:	83 c4 10             	add    $0x10,%esp
 8048ec9:	01 c0                	add    %eax,%eax
 8048ecb:	eb e8                	jmp    8048eb5 <fun7+0x32>
 8048ecd:	b8 ff ff ff ff       	mov    $0xffffffff,%eax
 8048ed2:	eb e1                	jmp    8048eb5 <fun7+0x32>

08048ed4 <secret_phase>:
 8048ed4:	53                   	push   %ebx
 8048ed5:	83 ec 08             	sub    $0x8,%esp
 8048ed8:	e8 43 02 00 00       	call   8049120 <read_line>
 8048edd:	83 ec 04             	sub    $0x4,%esp
 8048ee0:	6a 0a                	push   $0xa
 8048ee2:	6a 00                	push   $0x0
 8048ee4:	50                   	push   %eax
 8048ee5:	e8 96 f9 ff ff       	call   8048880 <strtol@plt>
 8048eea:	89 c3                	mov    %eax,%ebx
 8048eec:	8d 40 ff             	lea    -0x1(%eax),%eax
 8048eef:	83 c4 10             	add    $0x10,%esp
 8048ef2:	3d e8 03 00 00       	cmp    $0x3e8,%eax
 8048ef7:	77 2c                	ja     8048f25 <secret_phase+0x51>
 8048ef9:	83 ec 08             	sub    $0x8,%esp
 8048efc:	53                   	push   %ebx
 8048efd:	68 88 c0 04 08       	push   $0x804c088
 8048f02:	e8 7c ff ff ff       	call   8048e83 <fun7>
 8048f07:	83 c4 10             	add    $0x10,%esp
 8048f0a:	85 c0                	test   %eax,%eax
 8048f0c:	75 1e                	jne    8048f2c <secret_phase+0x58>
 8048f0e:	83 ec 0c             	sub    $0xc,%esp
 8048f11:	68 10 a0 04 08       	push   $0x804a010
 8048f16:	e8 a5 f8 ff ff       	call   80487c0 <puts@plt>
 8048f1b:	e8 ff 02 00 00       	call   804921f <phase_defused>
 8048f20:	83 c4 18             	add    $0x18,%esp
 8048f23:	5b                   	pop    %ebx
 8048f24:	c3                   	ret    
 8048f25:	e8 96 01 00 00       	call   80490c0 <explode_bomb>
 8048f2a:	eb cd                	jmp    8048ef9 <secret_phase+0x25>
 8048f2c:	e8 8f 01 00 00       	call   80490c0 <explode_bomb>
 8048f31:	eb db                	jmp    8048f0e <secret_phase+0x3a>

08048f33 <sig_handler>:
 8048f33:	83 ec 18             	sub    $0x18,%esp
 8048f36:	68 a0 a0 04 08       	push   $0x804a0a0
 8048f3b:	e8 80 f8 ff ff       	call   80487c0 <puts@plt>
 8048f40:	c7 04 24 03 00 00 00 	movl   $0x3,(%esp)
 8048f47:	e8 24 f8 ff ff       	call   8048770 <sleep@plt>
 8048f4c:	83 c4 08             	add    $0x8,%esp
 8048f4f:	68 62 a1 04 08       	push   $0x804a162
 8048f54:	6a 01                	push   $0x1
 8048f56:	e8 e5 f8 ff ff       	call   8048840 <__printf_chk@plt>
 8048f5b:	83 c4 04             	add    $0x4,%esp
 8048f5e:	ff 35 c4 c3 04 08    	pushl  0x804c3c4
 8048f64:	e8 d7 f7 ff ff       	call   8048740 <fflush@plt>
 8048f69:	c7 04 24 01 00 00 00 	movl   $0x1,(%esp)
 8048f70:	e8 fb f7 ff ff       	call   8048770 <sleep@plt>
 8048f75:	c7 04 24 6a a1 04 08 	movl   $0x804a16a,(%esp)
 8048f7c:	e8 3f f8 ff ff       	call   80487c0 <puts@plt>
 8048f81:	c7 04 24 10 00 00 00 	movl   $0x10,(%esp)
 8048f88:	e8 53 f8 ff ff       	call   80487e0 <exit@plt>

08048f8d <invalid_phase>:
 8048f8d:	83 ec 10             	sub    $0x10,%esp
 8048f90:	ff 74 24 14          	pushl  0x14(%esp)
 8048f94:	68 72 a1 04 08       	push   $0x804a172
 8048f99:	6a 01                	push   $0x1
 8048f9b:	e8 a0 f8 ff ff       	call   8048840 <__printf_chk@plt>
 8048fa0:	c7 04 24 08 00 00 00 	movl   $0x8,(%esp)
 8048fa7:	e8 34 f8 ff ff       	call   80487e0 <exit@plt>

08048fac <string_length>:
 8048fac:	8b 54 24 04          	mov    0x4(%esp),%edx
 8048fb0:	80 3a 00             	cmpb   $0x0,(%edx)
 8048fb3:	74 10                	je     8048fc5 <string_length+0x19>
 8048fb5:	b8 00 00 00 00       	mov    $0x0,%eax
 8048fba:	83 c0 01             	add    $0x1,%eax
 8048fbd:	80 3c 02 00          	cmpb   $0x0,(%edx,%eax,1)
 8048fc1:	75 f7                	jne    8048fba <string_length+0xe>
 8048fc3:	f3 c3                	repz ret 
 8048fc5:	b8 00 00 00 00       	mov    $0x0,%eax
 8048fca:	c3                   	ret    

08048fcb <strings_not_equal>:
 8048fcb:	57                   	push   %edi
 8048fcc:	56                   	push   %esi
 8048fcd:	53                   	push   %ebx
 8048fce:	8b 5c 24 10          	mov    0x10(%esp),%ebx
 8048fd2:	8b 74 24 14          	mov    0x14(%esp),%esi
 8048fd6:	53                   	push   %ebx
 8048fd7:	e8 d0 ff ff ff       	call   8048fac <string_length>
 8048fdc:	89 c7                	mov    %eax,%edi
 8048fde:	89 34 24             	mov    %esi,(%esp)
 8048fe1:	e8 c6 ff ff ff       	call   8048fac <string_length>
 8048fe6:	83 c4 04             	add    $0x4,%esp
 8048fe9:	ba 01 00 00 00       	mov    $0x1,%edx
 8048fee:	39 c7                	cmp    %eax,%edi
 8048ff0:	74 06                	je     8048ff8 <strings_not_equal+0x2d>
 8048ff2:	89 d0                	mov    %edx,%eax
 8048ff4:	5b                   	pop    %ebx
 8048ff5:	5e                   	pop    %esi
 8048ff6:	5f                   	pop    %edi
 8048ff7:	c3                   	ret    
 8048ff8:	0f b6 03             	movzbl (%ebx),%eax
 8048ffb:	84 c0                	test   %al,%al
 8048ffd:	74 23                	je     8049022 <strings_not_equal+0x57>
 8048fff:	3a 06                	cmp    (%esi),%al
 8049001:	75 26                	jne    8049029 <strings_not_equal+0x5e>
 8049003:	83 c3 01             	add    $0x1,%ebx
 8049006:	83 c6 01             	add    $0x1,%esi
 8049009:	0f b6 03             	movzbl (%ebx),%eax
 804900c:	84 c0                	test   %al,%al
 804900e:	74 0b                	je     804901b <strings_not_equal+0x50>
 8049010:	3a 06                	cmp    (%esi),%al
 8049012:	74 ef                	je     8049003 <strings_not_equal+0x38>
 8049014:	ba 01 00 00 00       	mov    $0x1,%edx
 8049019:	eb d7                	jmp    8048ff2 <strings_not_equal+0x27>
 804901b:	ba 00 00 00 00       	mov    $0x0,%edx
 8049020:	eb d0                	jmp    8048ff2 <strings_not_equal+0x27>
 8049022:	ba 00 00 00 00       	mov    $0x0,%edx
 8049027:	eb c9                	jmp    8048ff2 <strings_not_equal+0x27>
 8049029:	ba 01 00 00 00       	mov    $0x1,%edx
 804902e:	eb c2                	jmp    8048ff2 <strings_not_equal+0x27>

08049030 <initialize_bomb>:
 8049030:	83 ec 14             	sub    $0x14,%esp
 8049033:	68 33 8f 04 08       	push   $0x8048f33
 8049038:	6a 02                	push   $0x2
 804903a:	e8 21 f7 ff ff       	call   8048760 <signal@plt>
 804903f:	83 c4 1c             	add    $0x1c,%esp
 8049042:	c3                   	ret    

08049043 <initialize_bomb_solve>:
 8049043:	f3 c3                	repz ret 

08049045 <blank_line>:
 8049045:	56                   	push   %esi
 8049046:	53                   	push   %ebx
 8049047:	83 ec 04             	sub    $0x4,%esp
 804904a:	8b 74 24 10          	mov    0x10(%esp),%esi
 804904e:	0f b6 1e             	movzbl (%esi),%ebx
 8049051:	84 db                	test   %bl,%bl
 8049053:	74 1b                	je     8049070 <blank_line+0x2b>
 8049055:	e8 56 f8 ff ff       	call   80488b0 <__ctype_b_loc@plt>
 804905a:	83 c6 01             	add    $0x1,%esi
 804905d:	0f be db             	movsbl %bl,%ebx
 8049060:	8b 00                	mov    (%eax),%eax
 8049062:	f6 44 58 01 20       	testb  $0x20,0x1(%eax,%ebx,2)
 8049067:	75 e5                	jne    804904e <blank_line+0x9>
 8049069:	b8 00 00 00 00       	mov    $0x0,%eax
 804906e:	eb 05                	jmp    8049075 <blank_line+0x30>
 8049070:	b8 01 00 00 00       	mov    $0x1,%eax
 8049075:	83 c4 04             	add    $0x4,%esp
 8049078:	5b                   	pop    %ebx
 8049079:	5e                   	pop    %esi
 804907a:	c3                   	ret    

0804907b <skip>:
 804907b:	53                   	push   %ebx
 804907c:	83 ec 08             	sub    $0x8,%esp
 804907f:	83 ec 04             	sub    $0x4,%esp
 8049082:	ff 35 d0 c3 04 08    	pushl  0x804c3d0
 8049088:	6a 50                	push   $0x50
 804908a:	a1 cc c3 04 08       	mov    0x804c3cc,%eax
 804908f:	8d 04 80             	lea    (%eax,%eax,4),%eax
 8049092:	c1 e0 04             	shl    $0x4,%eax
 8049095:	05 e0 c3 04 08       	add    $0x804c3e0,%eax
 804909a:	50                   	push   %eax
 804909b:	e8 b0 f6 ff ff       	call   8048750 <fgets@plt>
 80490a0:	89 c3                	mov    %eax,%ebx
 80490a2:	83 c4 10             	add    $0x10,%esp
 80490a5:	85 c0                	test   %eax,%eax
 80490a7:	74 10                	je     80490b9 <skip+0x3e>
 80490a9:	83 ec 0c             	sub    $0xc,%esp
 80490ac:	50                   	push   %eax
 80490ad:	e8 93 ff ff ff       	call   8049045 <blank_line>
 80490b2:	83 c4 10             	add    $0x10,%esp
 80490b5:	85 c0                	test   %eax,%eax
 80490b7:	75 c6                	jne    804907f <skip+0x4>
 80490b9:	89 d8                	mov    %ebx,%eax
 80490bb:	83 c4 08             	add    $0x8,%esp
 80490be:	5b                   	pop    %ebx
 80490bf:	c3                   	ret    

080490c0 <explode_bomb>:
 80490c0:	83 ec 18             	sub    $0x18,%esp
 80490c3:	68 83 a1 04 08       	push   $0x804a183
 80490c8:	e8 f3 f6 ff ff       	call   80487c0 <puts@plt>
 80490cd:	c7 04 24 8c a1 04 08 	movl   $0x804a18c,(%esp)
 80490d4:	e8 e7 f6 ff ff       	call   80487c0 <puts@plt>
 80490d9:	c7 04 24 08 00 00 00 	movl   $0x8,(%esp)
 80490e0:	e8 fb f6 ff ff       	call   80487e0 <exit@plt>

080490e5 <read_six_numbers>:
 80490e5:	83 ec 0c             	sub    $0xc,%esp
 80490e8:	8b 44 24 14          	mov    0x14(%esp),%eax
 80490ec:	8d 50 14             	lea    0x14(%eax),%edx
 80490ef:	52                   	push   %edx
 80490f0:	8d 50 10             	lea    0x10(%eax),%edx
 80490f3:	52                   	push   %edx
 80490f4:	8d 50 0c             	lea    0xc(%eax),%edx
 80490f7:	52                   	push   %edx
 80490f8:	8d 50 08             	lea    0x8(%eax),%edx
 80490fb:	52                   	push   %edx
 80490fc:	8d 50 04             	lea    0x4(%eax),%edx
 80490ff:	52                   	push   %edx
 8049100:	50                   	push   %eax
 8049101:	68 a3 a1 04 08       	push   $0x804a1a3
 8049106:	ff 74 24 2c          	pushl  0x2c(%esp)
 804910a:	e8 01 f7 ff ff       	call   8048810 <__isoc99_sscanf@plt>
 804910f:	83 c4 20             	add    $0x20,%esp
 8049112:	83 f8 05             	cmp    $0x5,%eax
 8049115:	7e 04                	jle    804911b <read_six_numbers+0x36>
 8049117:	83 c4 0c             	add    $0xc,%esp
 804911a:	c3                   	ret    
 804911b:	e8 a0 ff ff ff       	call   80490c0 <explode_bomb>

08049120 <read_line>:
 8049120:	57                   	push   %edi
 8049121:	56                   	push   %esi
 8049122:	53                   	push   %ebx
 8049123:	e8 53 ff ff ff       	call   804907b <skip>
 8049128:	85 c0                	test   %eax,%eax
 804912a:	74 4b                	je     8049177 <read_line+0x57>
 804912c:	8b 15 cc c3 04 08    	mov    0x804c3cc,%edx
 8049132:	8d 1c 92             	lea    (%edx,%edx,4),%ebx
 8049135:	c1 e3 04             	shl    $0x4,%ebx
 8049138:	81 c3 e0 c3 04 08    	add    $0x804c3e0,%ebx
 804913e:	b8 00 00 00 00       	mov    $0x0,%eax
 8049143:	b9 ff ff ff ff       	mov    $0xffffffff,%ecx
 8049148:	89 df                	mov    %ebx,%edi
 804914a:	f2 ae                	repnz scas %es:(%edi),%al
 804914c:	f7 d1                	not    %ecx
 804914e:	83 e9 01             	sub    $0x1,%ecx
 8049151:	83 f9 4e             	cmp    $0x4e,%ecx
 8049154:	0f 8f 8d 00 00 00    	jg     80491e7 <read_line+0xc7>
 804915a:	8d 04 92             	lea    (%edx,%edx,4),%eax
 804915d:	c1 e0 04             	shl    $0x4,%eax
 8049160:	c6 84 01 df c3 04 08 	movb   $0x0,0x804c3df(%ecx,%eax,1)
 8049167:	00 
 8049168:	83 c2 01             	add    $0x1,%edx
 804916b:	89 15 cc c3 04 08    	mov    %edx,0x804c3cc
 8049171:	89 d8                	mov    %ebx,%eax
 8049173:	5b                   	pop    %ebx
 8049174:	5e                   	pop    %esi
 8049175:	5f                   	pop    %edi
 8049176:	c3                   	ret    
 8049177:	a1 c0 c3 04 08       	mov    0x804c3c0,%eax
 804917c:	39 05 d0 c3 04 08    	cmp    %eax,0x804c3d0
 8049182:	74 40                	je     80491c4 <read_line+0xa4>
 8049184:	83 ec 0c             	sub    $0xc,%esp
 8049187:	68 d3 a1 04 08       	push   $0x804a1d3
 804918c:	e8 1f f6 ff ff       	call   80487b0 <getenv@plt>
 8049191:	83 c4 10             	add    $0x10,%esp
 8049194:	85 c0                	test   %eax,%eax
 8049196:	75 45                	jne    80491dd <read_line+0xbd>
 8049198:	a1 c0 c3 04 08       	mov    0x804c3c0,%eax
 804919d:	a3 d0 c3 04 08       	mov    %eax,0x804c3d0
 80491a2:	e8 d4 fe ff ff       	call   804907b <skip>
 80491a7:	85 c0                	test   %eax,%eax
 80491a9:	75 81                	jne    804912c <read_line+0xc>
 80491ab:	83 ec 0c             	sub    $0xc,%esp
 80491ae:	68 b5 a1 04 08       	push   $0x804a1b5
 80491b3:	e8 08 f6 ff ff       	call   80487c0 <puts@plt>
 80491b8:	c7 04 24 00 00 00 00 	movl   $0x0,(%esp)
 80491bf:	e8 1c f6 ff ff       	call   80487e0 <exit@plt>
 80491c4:	83 ec 0c             	sub    $0xc,%esp
 80491c7:	68 b5 a1 04 08       	push   $0x804a1b5
 80491cc:	e8 ef f5 ff ff       	call   80487c0 <puts@plt>
 80491d1:	c7 04 24 08 00 00 00 	movl   $0x8,(%esp)
 80491d8:	e8 03 f6 ff ff       	call   80487e0 <exit@plt>
 80491dd:	83 ec 0c             	sub    $0xc,%esp
 80491e0:	6a 00                	push   $0x0
 80491e2:	e8 f9 f5 ff ff       	call   80487e0 <exit@plt>
 80491e7:	83 ec 0c             	sub    $0xc,%esp
 80491ea:	68 de a1 04 08       	push   $0x804a1de
 80491ef:	e8 cc f5 ff ff       	call   80487c0 <puts@plt>
 80491f4:	a1 cc c3 04 08       	mov    0x804c3cc,%eax
 80491f9:	8d 50 01             	lea    0x1(%eax),%edx
 80491fc:	89 15 cc c3 04 08    	mov    %edx,0x804c3cc
 8049202:	6b c0 50             	imul   $0x50,%eax,%eax
 8049205:	05 e0 c3 04 08       	add    $0x804c3e0,%eax
 804920a:	ba f9 a1 04 08       	mov    $0x804a1f9,%edx
 804920f:	b9 04 00 00 00       	mov    $0x4,%ecx
 8049214:	89 c7                	mov    %eax,%edi
 8049216:	89 d6                	mov    %edx,%esi
 8049218:	f3 a5                	rep movsl %ds:(%esi),%es:(%edi)
 804921a:	e8 a1 fe ff ff       	call   80490c0 <explode_bomb>

0804921f <phase_defused>:
 804921f:	83 ec 6c             	sub    $0x6c,%esp
 8049222:	65 a1 14 00 00 00    	mov    %gs:0x14,%eax
 8049228:	89 44 24 5c          	mov    %eax,0x5c(%esp)
 804922c:	31 c0                	xor    %eax,%eax
 804922e:	83 3d cc c3 04 08 06 	cmpl   $0x6,0x804c3cc
 8049235:	74 11                	je     8049248 <phase_defused+0x29>
 8049237:	8b 44 24 5c          	mov    0x5c(%esp),%eax
 804923b:	65 33 05 14 00 00 00 	xor    %gs:0x14,%eax
 8049242:	75 7b                	jne    80492bf <phase_defused+0xa0>
 8049244:	83 c4 6c             	add    $0x6c,%esp
 8049247:	c3                   	ret    
 8049248:	83 ec 0c             	sub    $0xc,%esp
 804924b:	8d 44 24 18          	lea    0x18(%esp),%eax
 804924f:	50                   	push   %eax
 8049250:	8d 44 24 18          	lea    0x18(%esp),%eax
 8049254:	50                   	push   %eax
 8049255:	8d 44 24 18          	lea    0x18(%esp),%eax
 8049259:	50                   	push   %eax
 804925a:	68 09 a2 04 08       	push   $0x804a209
 804925f:	68 d0 c4 04 08       	push   $0x804c4d0
 8049264:	e8 a7 f5 ff ff       	call   8048810 <__isoc99_sscanf@plt>
 8049269:	83 c4 20             	add    $0x20,%esp
 804926c:	83 f8 03             	cmp    $0x3,%eax
 804926f:	74 12                	je     8049283 <phase_defused+0x64>
 8049271:	83 ec 0c             	sub    $0xc,%esp
 8049274:	68 38 a1 04 08       	push   $0x804a138
 8049279:	e8 42 f5 ff ff       	call   80487c0 <puts@plt>
 804927e:	83 c4 10             	add    $0x10,%esp
 8049281:	eb b4                	jmp    8049237 <phase_defused+0x18>
 8049283:	83 ec 08             	sub    $0x8,%esp
 8049286:	68 12 a2 04 08       	push   $0x804a212
 804928b:	8d 44 24 18          	lea    0x18(%esp),%eax
 804928f:	50                   	push   %eax
 8049290:	e8 36 fd ff ff       	call   8048fcb <strings_not_equal>
 8049295:	83 c4 10             	add    $0x10,%esp
 8049298:	85 c0                	test   %eax,%eax
 804929a:	75 d5                	jne    8049271 <phase_defused+0x52>
 804929c:	83 ec 0c             	sub    $0xc,%esp
 804929f:	68 d8 a0 04 08       	push   $0x804a0d8
 80492a4:	e8 17 f5 ff ff       	call   80487c0 <puts@plt>
 80492a9:	c7 04 24 00 a1 04 08 	movl   $0x804a100,(%esp)
 80492b0:	e8 0b f5 ff ff       	call   80487c0 <puts@plt>
 80492b5:	e8 1a fc ff ff       	call   8048ed4 <secret_phase>
 80492ba:	83 c4 10             	add    $0x10,%esp
 80492bd:	eb b2                	jmp    8049271 <phase_defused+0x52>
 80492bf:	e8 cc f4 ff ff       	call   8048790 <__stack_chk_fail@plt>

080492c4 <sigalrm_handler>:
 80492c4:	83 ec 0c             	sub    $0xc,%esp
 80492c7:	6a 00                	push   $0x0
 80492c9:	68 68 a2 04 08       	push   $0x804a268
 80492ce:	6a 01                	push   $0x1
 80492d0:	ff 35 a0 c3 04 08    	pushl  0x804c3a0
 80492d6:	e8 85 f5 ff ff       	call   8048860 <__fprintf_chk@plt>
 80492db:	c7 04 24 01 00 00 00 	movl   $0x1,(%esp)
 80492e2:	e8 f9 f4 ff ff       	call   80487e0 <exit@plt>

080492e7 <rio_readlineb>:
 80492e7:	55                   	push   %ebp
 80492e8:	57                   	push   %edi
 80492e9:	56                   	push   %esi
 80492ea:	53                   	push   %ebx
 80492eb:	83 ec 1c             	sub    $0x1c,%esp
 80492ee:	83 f9 01             	cmp    $0x1,%ecx
 80492f1:	76 79                	jbe    804936c <rio_readlineb+0x85>
 80492f3:	89 d7                	mov    %edx,%edi
 80492f5:	89 c3                	mov    %eax,%ebx
 80492f7:	89 4c 24 0c          	mov    %ecx,0xc(%esp)
 80492fb:	bd 01 00 00 00       	mov    $0x1,%ebp
 8049300:	8d 70 0c             	lea    0xc(%eax),%esi
 8049303:	eb 0a                	jmp    804930f <rio_readlineb+0x28>
 8049305:	e8 26 f5 ff ff       	call   8048830 <__errno_location@plt>
 804930a:	83 38 04             	cmpl   $0x4,(%eax)
 804930d:	75 66                	jne    8049375 <rio_readlineb+0x8e>
 804930f:	8b 43 04             	mov    0x4(%ebx),%eax
 8049312:	85 c0                	test   %eax,%eax
 8049314:	7f 23                	jg     8049339 <rio_readlineb+0x52>
 8049316:	83 ec 04             	sub    $0x4,%esp
 8049319:	68 00 20 00 00       	push   $0x2000
 804931e:	56                   	push   %esi
 804931f:	ff 33                	pushl  (%ebx)
 8049321:	e8 0a f4 ff ff       	call   8048730 <read@plt>
 8049326:	89 43 04             	mov    %eax,0x4(%ebx)
 8049329:	83 c4 10             	add    $0x10,%esp
 804932c:	85 c0                	test   %eax,%eax
 804932e:	78 d5                	js     8049305 <rio_readlineb+0x1e>
 8049330:	85 c0                	test   %eax,%eax
 8049332:	74 48                	je     804937c <rio_readlineb+0x95>
 8049334:	89 73 08             	mov    %esi,0x8(%ebx)
 8049337:	eb d6                	jmp    804930f <rio_readlineb+0x28>
 8049339:	8b 4b 08             	mov    0x8(%ebx),%ecx
 804933c:	0f b6 11             	movzbl (%ecx),%edx
 804933f:	83 c1 01             	add    $0x1,%ecx
 8049342:	89 4b 08             	mov    %ecx,0x8(%ebx)
 8049345:	83 e8 01             	sub    $0x1,%eax
 8049348:	89 43 04             	mov    %eax,0x4(%ebx)
 804934b:	83 c7 01             	add    $0x1,%edi
 804934e:	88 57 ff             	mov    %dl,-0x1(%edi)
 8049351:	80 fa 0a             	cmp    $0xa,%dl
 8049354:	74 09                	je     804935f <rio_readlineb+0x78>
 8049356:	83 c5 01             	add    $0x1,%ebp
 8049359:	3b 6c 24 0c          	cmp    0xc(%esp),%ebp
 804935d:	75 b0                	jne    804930f <rio_readlineb+0x28>
 804935f:	c6 07 00             	movb   $0x0,(%edi)
 8049362:	89 e8                	mov    %ebp,%eax
 8049364:	83 c4 1c             	add    $0x1c,%esp
 8049367:	5b                   	pop    %ebx
 8049368:	5e                   	pop    %esi
 8049369:	5f                   	pop    %edi
 804936a:	5d                   	pop    %ebp
 804936b:	c3                   	ret    
 804936c:	89 d7                	mov    %edx,%edi
 804936e:	bd 01 00 00 00       	mov    $0x1,%ebp
 8049373:	eb ea                	jmp    804935f <rio_readlineb+0x78>
 8049375:	b8 ff ff ff ff       	mov    $0xffffffff,%eax
 804937a:	eb 05                	jmp    8049381 <rio_readlineb+0x9a>
 804937c:	b8 00 00 00 00       	mov    $0x0,%eax
 8049381:	85 c0                	test   %eax,%eax
 8049383:	75 0c                	jne    8049391 <rio_readlineb+0xaa>
 8049385:	83 fd 01             	cmp    $0x1,%ebp
 8049388:	75 d5                	jne    804935f <rio_readlineb+0x78>
 804938a:	bd 00 00 00 00       	mov    $0x0,%ebp
 804938f:	eb d1                	jmp    8049362 <rio_readlineb+0x7b>
 8049391:	bd ff ff ff ff       	mov    $0xffffffff,%ebp
 8049396:	eb ca                	jmp    8049362 <rio_readlineb+0x7b>

08049398 <submitr>:
 8049398:	55                   	push   %ebp
 8049399:	57                   	push   %edi
 804939a:	56                   	push   %esi
 804939b:	53                   	push   %ebx
 804939c:	81 ec 60 a0 00 00    	sub    $0xa060,%esp
 80493a2:	8b 9c 24 74 a0 00 00 	mov    0xa074(%esp),%ebx
 80493a9:	8b 84 24 7c a0 00 00 	mov    0xa07c(%esp),%eax
 80493b0:	89 44 24 0c          	mov    %eax,0xc(%esp)
 80493b4:	8b 84 24 80 a0 00 00 	mov    0xa080(%esp),%eax
 80493bb:	89 44 24 10          	mov    %eax,0x10(%esp)
 80493bf:	8b 84 24 84 a0 00 00 	mov    0xa084(%esp),%eax
 80493c6:	89 44 24 14          	mov    %eax,0x14(%esp)
 80493ca:	8b b4 24 88 a0 00 00 	mov    0xa088(%esp),%esi
 80493d1:	8b 84 24 8c a0 00 00 	mov    0xa08c(%esp),%eax
 80493d8:	89 44 24 18          	mov    %eax,0x18(%esp)
 80493dc:	65 a1 14 00 00 00    	mov    %gs:0x14,%eax
 80493e2:	89 84 24 50 a0 00 00 	mov    %eax,0xa050(%esp)
 80493e9:	31 c0                	xor    %eax,%eax
 80493eb:	c7 44 24 30 00 00 00 	movl   $0x0,0x30(%esp)
 80493f2:	00 
 80493f3:	6a 00                	push   $0x0
 80493f5:	6a 01                	push   $0x1
 80493f7:	6a 02                	push   $0x2
 80493f9:	e8 52 f4 ff ff       	call   8048850 <socket@plt>
 80493fe:	83 c4 10             	add    $0x10,%esp
 8049401:	85 c0                	test   %eax,%eax
 8049403:	0f 88 04 01 00 00    	js     804950d <submitr+0x175>
 8049409:	89 c5                	mov    %eax,%ebp
 804940b:	83 ec 0c             	sub    $0xc,%esp
 804940e:	53                   	push   %ebx
 804940f:	e8 5c f4 ff ff       	call   8048870 <gethostbyname@plt>
 8049414:	83 c4 10             	add    $0x10,%esp
 8049417:	85 c0                	test   %eax,%eax
 8049419:	0f 84 40 01 00 00    	je     804955f <submitr+0x1c7>
 804941f:	8d 5c 24 30          	lea    0x30(%esp),%ebx
 8049423:	c7 44 24 30 00 00 00 	movl   $0x0,0x30(%esp)
 804942a:	00 
 804942b:	c7 44 24 34 00 00 00 	movl   $0x0,0x34(%esp)
 8049432:	00 
 8049433:	c7 44 24 38 00 00 00 	movl   $0x0,0x38(%esp)
 804943a:	00 
 804943b:	c7 44 24 3c 00 00 00 	movl   $0x0,0x3c(%esp)
 8049442:	00 
 8049443:	66 c7 44 24 30 02 00 	movw   $0x2,0x30(%esp)
 804944a:	6a 0c                	push   $0xc
 804944c:	ff 70 0c             	pushl  0xc(%eax)
 804944f:	8b 40 10             	mov    0x10(%eax),%eax
 8049452:	ff 30                	pushl  (%eax)
 8049454:	8d 44 24 40          	lea    0x40(%esp),%eax
 8049458:	50                   	push   %eax
 8049459:	e8 72 f3 ff ff       	call   80487d0 <__memmove_chk@plt>
 804945e:	0f b7 84 24 84 a0 00 	movzwl 0xa084(%esp),%eax
 8049465:	00 
 8049466:	66 c1 c8 08          	ror    $0x8,%ax
 804946a:	66 89 44 24 42       	mov    %ax,0x42(%esp)
 804946f:	83 c4 0c             	add    $0xc,%esp
 8049472:	6a 10                	push   $0x10
 8049474:	53                   	push   %ebx
 8049475:	55                   	push   %ebp
 8049476:	e8 15 f4 ff ff       	call   8048890 <connect@plt>
 804947b:	83 c4 10             	add    $0x10,%esp
 804947e:	85 c0                	test   %eax,%eax
 8049480:	0f 88 49 01 00 00    	js     80495cf <submitr+0x237>
 8049486:	ba ff ff ff ff       	mov    $0xffffffff,%edx
 804948b:	b8 00 00 00 00       	mov    $0x0,%eax
 8049490:	89 d1                	mov    %edx,%ecx
 8049492:	89 f7                	mov    %esi,%edi
 8049494:	f2 ae                	repnz scas %es:(%edi),%al
 8049496:	89 cb                	mov    %ecx,%ebx
 8049498:	f7 d3                	not    %ebx
 804949a:	89 d1                	mov    %edx,%ecx
 804949c:	8b 7c 24 08          	mov    0x8(%esp),%edi
 80494a0:	f2 ae                	repnz scas %es:(%edi),%al
 80494a2:	89 4c 24 18          	mov    %ecx,0x18(%esp)
 80494a6:	89 d1                	mov    %edx,%ecx
 80494a8:	8b 7c 24 0c          	mov    0xc(%esp),%edi
 80494ac:	f2 ae                	repnz scas %es:(%edi),%al
 80494ae:	89 cf                	mov    %ecx,%edi
 80494b0:	f7 d7                	not    %edi
 80494b2:	89 7c 24 1c          	mov    %edi,0x1c(%esp)
 80494b6:	89 d1                	mov    %edx,%ecx
 80494b8:	8b 7c 24 10          	mov    0x10(%esp),%edi
 80494bc:	f2 ae                	repnz scas %es:(%edi),%al
 80494be:	8b 54 24 1c          	mov    0x1c(%esp),%edx
 80494c2:	2b 54 24 18          	sub    0x18(%esp),%edx
 80494c6:	29 ca                	sub    %ecx,%edx
 80494c8:	8d 44 5b fd          	lea    -0x3(%ebx,%ebx,2),%eax
 80494cc:	8d 44 02 7b          	lea    0x7b(%edx,%eax,1),%eax
 80494d0:	3d 00 20 00 00       	cmp    $0x2000,%eax
 80494d5:	0f 87 56 01 00 00    	ja     8049631 <submitr+0x299>
 80494db:	8d 94 24 4c 40 00 00 	lea    0x404c(%esp),%edx
 80494e2:	b9 00 08 00 00       	mov    $0x800,%ecx
 80494e7:	b8 00 00 00 00       	mov    $0x0,%eax
 80494ec:	89 d7                	mov    %edx,%edi
 80494ee:	f3 ab                	rep stos %eax,%es:(%edi)
 80494f0:	b9 ff ff ff ff       	mov    $0xffffffff,%ecx
 80494f5:	89 f7                	mov    %esi,%edi
 80494f7:	f2 ae                	repnz scas %es:(%edi),%al
 80494f9:	f7 d1                	not    %ecx
 80494fb:	89 cb                	mov    %ecx,%ebx
 80494fd:	83 eb 01             	sub    $0x1,%ebx
 8049500:	0f 84 07 06 00 00    	je     8049b0d <submitr+0x775>
 8049506:	89 d7                	mov    %edx,%edi
 8049508:	e9 b0 01 00 00       	jmp    80496bd <submitr+0x325>
 804950d:	8b 44 24 14          	mov    0x14(%esp),%eax
 8049511:	c7 00 45 72 72 6f    	movl   $0x6f727245,(%eax)
 8049517:	c7 40 04 72 3a 20 43 	movl   $0x43203a72,0x4(%eax)
 804951e:	c7 40 08 6c 69 65 6e 	movl   $0x6e65696c,0x8(%eax)
 8049525:	c7 40 0c 74 20 75 6e 	movl   $0x6e752074,0xc(%eax)
 804952c:	c7 40 10 61 62 6c 65 	movl   $0x656c6261,0x10(%eax)
 8049533:	c7 40 14 20 74 6f 20 	movl   $0x206f7420,0x14(%eax)
 804953a:	c7 40 18 63 72 65 61 	movl   $0x61657263,0x18(%eax)
 8049541:	c7 40 1c 74 65 20 73 	movl   $0x73206574,0x1c(%eax)
 8049548:	c7 40 20 6f 63 6b 65 	movl   $0x656b636f,0x20(%eax)
 804954f:	66 c7 40 24 74 00    	movw   $0x74,0x24(%eax)
 8049555:	b8 ff ff ff ff       	mov    $0xffffffff,%eax
 804955a:	e9 d0 04 00 00       	jmp    8049a2f <submitr+0x697>
 804955f:	8b 44 24 14          	mov    0x14(%esp),%eax
 8049563:	c7 00 45 72 72 6f    	movl   $0x6f727245,(%eax)
 8049569:	c7 40 04 72 3a 20 44 	movl   $0x44203a72,0x4(%eax)
 8049570:	c7 40 08 4e 53 20 69 	movl   $0x6920534e,0x8(%eax)
 8049577:	c7 40 0c 73 20 75 6e 	movl   $0x6e752073,0xc(%eax)
 804957e:	c7 40 10 61 62 6c 65 	movl   $0x656c6261,0x10(%eax)
 8049585:	c7 40 14 20 74 6f 20 	movl   $0x206f7420,0x14(%eax)
 804958c:	c7 40 18 72 65 73 6f 	movl   $0x6f736572,0x18(%eax)
 8049593:	c7 40 1c 6c 76 65 20 	movl   $0x2065766c,0x1c(%eax)
 804959a:	c7 40 20 73 65 72 76 	movl   $0x76726573,0x20(%eax)
 80495a1:	c7 40 24 65 72 20 61 	movl   $0x61207265,0x24(%eax)
 80495a8:	c7 40 28 64 64 72 65 	movl   $0x65726464,0x28(%eax)
 80495af:	66 c7 40 2c 73 73    	movw   $0x7373,0x2c(%eax)
 80495b5:	c6 40 2e 00          	movb   $0x0,0x2e(%eax)
 80495b9:	83 ec 0c             	sub    $0xc,%esp
 80495bc:	55                   	push   %ebp
 80495bd:	e8 de f2 ff ff       	call   80488a0 <close@plt>
 80495c2:	83 c4 10             	add    $0x10,%esp
 80495c5:	b8 ff ff ff ff       	mov    $0xffffffff,%eax
 80495ca:	e9 60 04 00 00       	jmp    8049a2f <submitr+0x697>
 80495cf:	8b 44 24 14          	mov    0x14(%esp),%eax
 80495d3:	c7 00 45 72 72 6f    	movl   $0x6f727245,(%eax)
 80495d9:	c7 40 04 72 3a 20 55 	movl   $0x55203a72,0x4(%eax)
 80495e0:	c7 40 08 6e 61 62 6c 	movl   $0x6c62616e,0x8(%eax)
 80495e7:	c7 40 0c 65 20 74 6f 	movl   $0x6f742065,0xc(%eax)
 80495ee:	c7 40 10 20 63 6f 6e 	movl   $0x6e6f6320,0x10(%eax)
 80495f5:	c7 40 14 6e 65 63 74 	movl   $0x7463656e,0x14(%eax)
 80495fc:	c7 40 18 20 74 6f 20 	movl   $0x206f7420,0x18(%eax)
 8049603:	c7 40 1c 74 68 65 20 	movl   $0x20656874,0x1c(%eax)
 804960a:	c7 40 20 73 65 72 76 	movl   $0x76726573,0x20(%eax)
 8049611:	66 c7 40 24 65 72    	movw   $0x7265,0x24(%eax)
 8049617:	c6 40 26 00          	movb   $0x0,0x26(%eax)
 804961b:	83 ec 0c             	sub    $0xc,%esp
 804961e:	55                   	push   %ebp
 804961f:	e8 7c f2 ff ff       	call   80488a0 <close@plt>
 8049624:	83 c4 10             	add    $0x10,%esp
 8049627:	b8 ff ff ff ff       	mov    $0xffffffff,%eax
 804962c:	e9 fe 03 00 00       	jmp    8049a2f <submitr+0x697>
 8049631:	8b 44 24 14          	mov    0x14(%esp),%eax
 8049635:	c7 00 45 72 72 6f    	movl   $0x6f727245,(%eax)
 804963b:	c7 40 04 72 3a 20 52 	movl   $0x52203a72,0x4(%eax)
 8049642:	c7 40 08 65 73 75 6c 	movl   $0x6c757365,0x8(%eax)
 8049649:	c7 40 0c 74 20 73 74 	movl   $0x74732074,0xc(%eax)
 8049650:	c7 40 10 72 69 6e 67 	movl   $0x676e6972,0x10(%eax)
 8049657:	c7 40 14 20 74 6f 6f 	movl   $0x6f6f7420,0x14(%eax)
 804965e:	c7 40 18 20 6c 61 72 	movl   $0x72616c20,0x18(%eax)
 8049665:	c7 40 1c 67 65 2e 20 	movl   $0x202e6567,0x1c(%eax)
 804966c:	c7 40 20 49 6e 63 72 	movl   $0x72636e49,0x20(%eax)
 8049673:	c7 40 24 65 61 73 65 	movl   $0x65736165,0x24(%eax)
 804967a:	c7 40 28 20 53 55 42 	movl   $0x42555320,0x28(%eax)
 8049681:	c7 40 2c 4d 49 54 52 	movl   $0x5254494d,0x2c(%eax)
 8049688:	c7 40 30 5f 4d 41 58 	movl   $0x58414d5f,0x30(%eax)
 804968f:	c7 40 34 42 55 46 00 	movl   $0x465542,0x34(%eax)
 8049696:	83 ec 0c             	sub    $0xc,%esp
 8049699:	55                   	push   %ebp
 804969a:	e8 01 f2 ff ff       	call   80488a0 <close@plt>
 804969f:	83 c4 10             	add    $0x10,%esp
 80496a2:	b8 ff ff ff ff       	mov    $0xffffffff,%eax
 80496a7:	e9 83 03 00 00       	jmp    8049a2f <submitr+0x697>
 80496ac:	88 17                	mov    %dl,(%edi)
 80496ae:	8d 7f 01             	lea    0x1(%edi),%edi
 80496b1:	83 c6 01             	add    $0x1,%esi
 80496b4:	83 eb 01             	sub    $0x1,%ebx
 80496b7:	0f 84 50 04 00 00    	je     8049b0d <submitr+0x775>
 80496bd:	0f b6 16             	movzbl (%esi),%edx
 80496c0:	8d 4a d6             	lea    -0x2a(%edx),%ecx
 80496c3:	b8 01 00 00 00       	mov    $0x1,%eax
 80496c8:	80 f9 0f             	cmp    $0xf,%cl
 80496cb:	77 0d                	ja     80496da <submitr+0x342>
 80496cd:	b8 d9 ff 00 00       	mov    $0xffd9,%eax
 80496d2:	d3 e8                	shr    %cl,%eax
 80496d4:	83 f0 01             	xor    $0x1,%eax
 80496d7:	83 e0 01             	and    $0x1,%eax
 80496da:	80 fa 5f             	cmp    $0x5f,%dl
 80496dd:	74 cd                	je     80496ac <submitr+0x314>
 80496df:	84 c0                	test   %al,%al
 80496e1:	74 c9                	je     80496ac <submitr+0x314>
 80496e3:	89 d0                	mov    %edx,%eax
 80496e5:	83 e0 df             	and    $0xffffffdf,%eax
 80496e8:	83 e8 41             	sub    $0x41,%eax
 80496eb:	3c 19                	cmp    $0x19,%al
 80496ed:	76 bd                	jbe    80496ac <submitr+0x314>
 80496ef:	80 fa 20             	cmp    $0x20,%dl
 80496f2:	74 58                	je     804974c <submitr+0x3b4>
 80496f4:	8d 42 e0             	lea    -0x20(%edx),%eax
 80496f7:	3c 5f                	cmp    $0x5f,%al
 80496f9:	76 09                	jbe    8049704 <submitr+0x36c>
 80496fb:	80 fa 09             	cmp    $0x9,%dl
 80496fe:	0f 85 c5 03 00 00    	jne    8049ac9 <submitr+0x731>
 8049704:	83 ec 0c             	sub    $0xc,%esp
 8049707:	0f b6 d2             	movzbl %dl,%edx
 804970a:	52                   	push   %edx
 804970b:	68 74 a3 04 08       	push   $0x804a374
 8049710:	6a 08                	push   $0x8
 8049712:	6a 01                	push   $0x1
 8049714:	8d 84 24 68 80 00 00 	lea    0x8068(%esp),%eax
 804971b:	50                   	push   %eax
 804971c:	e8 9f f1 ff ff       	call   80488c0 <__sprintf_chk@plt>
 8049721:	0f b6 84 24 6c 80 00 	movzbl 0x806c(%esp),%eax
 8049728:	00 
 8049729:	88 07                	mov    %al,(%edi)
 804972b:	0f b6 84 24 6d 80 00 	movzbl 0x806d(%esp),%eax
 8049732:	00 
 8049733:	88 47 01             	mov    %al,0x1(%edi)
 8049736:	0f b6 84 24 6e 80 00 	movzbl 0x806e(%esp),%eax
 804973d:	00 
 804973e:	88 47 02             	mov    %al,0x2(%edi)
 8049741:	83 c4 20             	add    $0x20,%esp
 8049744:	8d 7f 03             	lea    0x3(%edi),%edi
 8049747:	e9 65 ff ff ff       	jmp    80496b1 <submitr+0x319>
 804974c:	c6 07 2b             	movb   $0x2b,(%edi)
 804974f:	8d 7f 01             	lea    0x1(%edi),%edi
 8049752:	e9 5a ff ff ff       	jmp    80496b1 <submitr+0x319>
 8049757:	01 c6                	add    %eax,%esi
 8049759:	29 c3                	sub    %eax,%ebx
 804975b:	74 24                	je     8049781 <submitr+0x3e9>
 804975d:	83 ec 04             	sub    $0x4,%esp
 8049760:	53                   	push   %ebx
 8049761:	56                   	push   %esi
 8049762:	55                   	push   %ebp
 8049763:	e8 98 f0 ff ff       	call   8048800 <write@plt>
 8049768:	83 c4 10             	add    $0x10,%esp
 804976b:	85 c0                	test   %eax,%eax
 804976d:	7f e8                	jg     8049757 <submitr+0x3bf>
 804976f:	e8 bc f0 ff ff       	call   8048830 <__errno_location@plt>
 8049774:	83 38 04             	cmpl   $0x4,(%eax)
 8049777:	0f 85 b0 00 00 00    	jne    804982d <submitr+0x495>
 804977d:	89 f8                	mov    %edi,%eax
 804977f:	eb d6                	jmp    8049757 <submitr+0x3bf>
 8049781:	83 7c 24 08 00       	cmpl   $0x0,0x8(%esp)
 8049786:	0f 88 a1 00 00 00    	js     804982d <submitr+0x495>
 804978c:	89 6c 24 40          	mov    %ebp,0x40(%esp)
 8049790:	c7 44 24 44 00 00 00 	movl   $0x0,0x44(%esp)
 8049797:	00 
 8049798:	8d 44 24 4c          	lea    0x4c(%esp),%eax
 804979c:	89 44 24 48          	mov    %eax,0x48(%esp)
 80497a0:	b9 00 20 00 00       	mov    $0x2000,%ecx
 80497a5:	8d 94 24 4c 20 00 00 	lea    0x204c(%esp),%edx
 80497ac:	8d 44 24 40          	lea    0x40(%esp),%eax
 80497b0:	e8 32 fb ff ff       	call   80492e7 <rio_readlineb>
 80497b5:	85 c0                	test   %eax,%eax
 80497b7:	0f 8e d6 00 00 00    	jle    8049893 <submitr+0x4fb>
 80497bd:	83 ec 0c             	sub    $0xc,%esp
 80497c0:	8d 84 24 58 80 00 00 	lea    0x8058(%esp),%eax
 80497c7:	50                   	push   %eax
 80497c8:	8d 44 24 3c          	lea    0x3c(%esp),%eax
 80497cc:	50                   	push   %eax
 80497cd:	8d 84 24 60 60 00 00 	lea    0x6060(%esp),%eax
 80497d4:	50                   	push   %eax
 80497d5:	68 7b a3 04 08       	push   $0x804a37b
 80497da:	8d 84 24 68 20 00 00 	lea    0x2068(%esp),%eax
 80497e1:	50                   	push   %eax
 80497e2:	e8 29 f0 ff ff       	call   8048810 <__isoc99_sscanf@plt>
 80497e7:	8b 44 24 4c          	mov    0x4c(%esp),%eax
 80497eb:	83 c4 20             	add    $0x20,%esp
 80497ee:	3d c8 00 00 00       	cmp    $0xc8,%eax
 80497f3:	0f 84 a6 01 00 00    	je     804999f <submitr+0x607>
 80497f9:	83 ec 08             	sub    $0x8,%esp
 80497fc:	8d 94 24 54 80 00 00 	lea    0x8054(%esp),%edx
 8049803:	52                   	push   %edx
 8049804:	50                   	push   %eax
 8049805:	68 8c a2 04 08       	push   $0x804a28c
 804980a:	6a ff                	push   $0xffffffff
 804980c:	6a 01                	push   $0x1
 804980e:	ff 74 24 30          	pushl  0x30(%esp)
 8049812:	e8 a9 f0 ff ff       	call   80488c0 <__sprintf_chk@plt>
 8049817:	83 c4 14             	add    $0x14,%esp
 804981a:	55                   	push   %ebp
 804981b:	e8 80 f0 ff ff       	call   80488a0 <close@plt>
 8049820:	83 c4 10             	add    $0x10,%esp
 8049823:	b8 ff ff ff ff       	mov    $0xffffffff,%eax
 8049828:	e9 02 02 00 00       	jmp    8049a2f <submitr+0x697>
 804982d:	8b 44 24 14          	mov    0x14(%esp),%eax
 8049831:	c7 00 45 72 72 6f    	movl   $0x6f727245,(%eax)
 8049837:	c7 40 04 72 3a 20 43 	movl   $0x43203a72,0x4(%eax)
 804983e:	c7 40 08 6c 69 65 6e 	movl   $0x6e65696c,0x8(%eax)
 8049845:	c7 40 0c 74 20 75 6e 	movl   $0x6e752074,0xc(%eax)
 804984c:	c7 40 10 61 62 6c 65 	movl   $0x656c6261,0x10(%eax)
 8049853:	c7 40 14 20 74 6f 20 	movl   $0x206f7420,0x14(%eax)
 804985a:	c7 40 18 77 72 69 74 	movl   $0x74697277,0x18(%eax)
 8049861:	c7 40 1c 65 20 74 6f 	movl   $0x6f742065,0x1c(%eax)
 8049868:	c7 40 20 20 74 68 65 	movl   $0x65687420,0x20(%eax)
 804986f:	c7 40 24 20 73 65 72 	movl   $0x72657320,0x24(%eax)
 8049876:	c7 40 28 76 65 72 00 	movl   $0x726576,0x28(%eax)
 804987d:	83 ec 0c             	sub    $0xc,%esp
 8049880:	55                   	push   %ebp
 8049881:	e8 1a f0 ff ff       	call   80488a0 <close@plt>
 8049886:	83 c4 10             	add    $0x10,%esp
 8049889:	b8 ff ff ff ff       	mov    $0xffffffff,%eax
 804988e:	e9 9c 01 00 00       	jmp    8049a2f <submitr+0x697>
 8049893:	8b 44 24 14          	mov    0x14(%esp),%eax
 8049897:	c7 00 45 72 72 6f    	movl   $0x6f727245,(%eax)
 804989d:	c7 40 04 72 3a 20 43 	movl   $0x43203a72,0x4(%eax)
 80498a4:	c7 40 08 6c 69 65 6e 	movl   $0x6e65696c,0x8(%eax)
 80498ab:	c7 40 0c 74 20 75 6e 	movl   $0x6e752074,0xc(%eax)
 80498b2:	c7 40 10 61 62 6c 65 	movl   $0x656c6261,0x10(%eax)
 80498b9:	c7 40 14 20 74 6f 20 	movl   $0x206f7420,0x14(%eax)
 80498c0:	c7 40 18 72 65 61 64 	movl   $0x64616572,0x18(%eax)
 80498c7:	c7 40 1c 20 66 69 72 	movl   $0x72696620,0x1c(%eax)
 80498ce:	c7 40 20 73 74 20 68 	movl   $0x68207473,0x20(%eax)
 80498d5:	c7 40 24 65 61 64 65 	movl   $0x65646165,0x24(%eax)
 80498dc:	c7 40 28 72 20 66 72 	movl   $0x72662072,0x28(%eax)
 80498e3:	c7 40 2c 6f 6d 20 73 	movl   $0x73206d6f,0x2c(%eax)
 80498ea:	c7 40 30 65 72 76 65 	movl   $0x65767265,0x30(%eax)
 80498f1:	66 c7 40 34 72 00    	movw   $0x72,0x34(%eax)
 80498f7:	83 ec 0c             	sub    $0xc,%esp
 80498fa:	55                   	push   %ebp
 80498fb:	e8 a0 ef ff ff       	call   80488a0 <close@plt>
 8049900:	83 c4 10             	add    $0x10,%esp
 8049903:	b8 ff ff ff ff       	mov    $0xffffffff,%eax
 8049908:	e9 22 01 00 00       	jmp    8049a2f <submitr+0x697>
 804990d:	8b 44 24 14          	mov    0x14(%esp),%eax
 8049911:	c7 00 45 72 72 6f    	movl   $0x6f727245,(%eax)
 8049917:	c7 40 04 72 3a 20 43 	movl   $0x43203a72,0x4(%eax)
 804991e:	c7 40 08 6c 69 65 6e 	movl   $0x6e65696c,0x8(%eax)
 8049925:	c7 40 0c 74 20 75 6e 	movl   $0x6e752074,0xc(%eax)
 804992c:	c7 40 10 61 62 6c 65 	movl   $0x656c6261,0x10(%eax)
 8049933:	c7 40 14 20 74 6f 20 	movl   $0x206f7420,0x14(%eax)
 804993a:	c7 40 18 72 65 61 64 	movl   $0x64616572,0x18(%eax)
 8049941:	c7 40 1c 20 68 65 61 	movl   $0x61656820,0x1c(%eax)
 8049948:	c7 40 20 64 65 72 73 	movl   $0x73726564,0x20(%eax)
 804994f:	c7 40 24 20 66 72 6f 	movl   $0x6f726620,0x24(%eax)
 8049956:	c7 40 28 6d 20 73 65 	movl   $0x6573206d,0x28(%eax)
 804995d:	c7 40 2c 72 76 65 72 	movl   $0x72657672,0x2c(%eax)
 8049964:	c6 40 30 00          	movb   $0x0,0x30(%eax)
 8049968:	83 ec 0c             	sub    $0xc,%esp
 804996b:	55                   	push   %ebp
 804996c:	e8 2f ef ff ff       	call   80488a0 <close@plt>
 8049971:	83 c4 10             	add    $0x10,%esp
 8049974:	b8 ff ff ff ff       	mov    $0xffffffff,%eax
 8049979:	e9 b1 00 00 00       	jmp    8049a2f <submitr+0x697>
 804997e:	85 c0                	test   %eax,%eax
 8049980:	74 4b                	je     80499cd <submitr+0x635>
 8049982:	b9 00 20 00 00       	mov    $0x2000,%ecx
 8049987:	8d 94 24 4c 20 00 00 	lea    0x204c(%esp),%edx
 804998e:	8d 44 24 40          	lea    0x40(%esp),%eax
 8049992:	e8 50 f9 ff ff       	call   80492e7 <rio_readlineb>
 8049997:	85 c0                	test   %eax,%eax
 8049999:	0f 8e 6e ff ff ff    	jle    804990d <submitr+0x575>
 804999f:	0f b6 94 24 4c 20 00 	movzbl 0x204c(%esp),%edx
 80499a6:	00 
 80499a7:	b8 0d 00 00 00       	mov    $0xd,%eax
 80499ac:	29 d0                	sub    %edx,%eax
 80499ae:	75 ce                	jne    804997e <submitr+0x5e6>
 80499b0:	0f b6 94 24 4d 20 00 	movzbl 0x204d(%esp),%edx
 80499b7:	00 
 80499b8:	b8 0a 00 00 00       	mov    $0xa,%eax
 80499bd:	29 d0                	sub    %edx,%eax
 80499bf:	75 bd                	jne    804997e <submitr+0x5e6>
 80499c1:	0f b6 84 24 4e 20 00 	movzbl 0x204e(%esp),%eax
 80499c8:	00 
 80499c9:	f7 d8                	neg    %eax
 80499cb:	eb b1                	jmp    804997e <submitr+0x5e6>
 80499cd:	b9 00 20 00 00       	mov    $0x2000,%ecx
 80499d2:	8d 94 24 4c 20 00 00 	lea    0x204c(%esp),%edx
 80499d9:	8d 44 24 40          	lea    0x40(%esp),%eax
 80499dd:	e8 05 f9 ff ff       	call   80492e7 <rio_readlineb>
 80499e2:	85 c0                	test   %eax,%eax
 80499e4:	7e 68                	jle    8049a4e <submitr+0x6b6>
 80499e6:	83 ec 08             	sub    $0x8,%esp
 80499e9:	8d 84 24 54 20 00 00 	lea    0x2054(%esp),%eax
 80499f0:	50                   	push   %eax
 80499f1:	8b 7c 24 20          	mov    0x20(%esp),%edi
 80499f5:	57                   	push   %edi
 80499f6:	e8 a5 ed ff ff       	call   80487a0 <strcpy@plt>
 80499fb:	89 2c 24             	mov    %ebp,(%esp)
 80499fe:	e8 9d ee ff ff       	call   80488a0 <close@plt>
 8049a03:	0f b6 17             	movzbl (%edi),%edx
 8049a06:	b8 4f 00 00 00       	mov    $0x4f,%eax
 8049a0b:	83 c4 10             	add    $0x10,%esp
 8049a0e:	29 d0                	sub    %edx,%eax
 8049a10:	75 13                	jne    8049a25 <submitr+0x68d>
 8049a12:	0f b6 57 01          	movzbl 0x1(%edi),%edx
 8049a16:	b8 4b 00 00 00       	mov    $0x4b,%eax
 8049a1b:	29 d0                	sub    %edx,%eax
 8049a1d:	75 06                	jne    8049a25 <submitr+0x68d>
 8049a1f:	0f b6 47 02          	movzbl 0x2(%edi),%eax
 8049a23:	f7 d8                	neg    %eax
 8049a25:	85 c0                	test   %eax,%eax
 8049a27:	0f 95 c0             	setne  %al
 8049a2a:	0f b6 c0             	movzbl %al,%eax
 8049a2d:	f7 d8                	neg    %eax
 8049a2f:	8b bc 24 4c a0 00 00 	mov    0xa04c(%esp),%edi
 8049a36:	65 33 3d 14 00 00 00 	xor    %gs:0x14,%edi
 8049a3d:	0f 85 2a 01 00 00    	jne    8049b6d <submitr+0x7d5>
 8049a43:	81 c4 5c a0 00 00    	add    $0xa05c,%esp
 8049a49:	5b                   	pop    %ebx
 8049a4a:	5e                   	pop    %esi
 8049a4b:	5f                   	pop    %edi
 8049a4c:	5d                   	pop    %ebp
 8049a4d:	c3                   	ret    
 8049a4e:	8b 44 24 14          	mov    0x14(%esp),%eax
 8049a52:	c7 00 45 72 72 6f    	movl   $0x6f727245,(%eax)
 8049a58:	c7 40 04 72 3a 20 43 	movl   $0x43203a72,0x4(%eax)
 8049a5f:	c7 40 08 6c 69 65 6e 	movl   $0x6e65696c,0x8(%eax)
 8049a66:	c7 40 0c 74 20 75 6e 	movl   $0x6e752074,0xc(%eax)
 8049a6d:	c7 40 10 61 62 6c 65 	movl   $0x656c6261,0x10(%eax)
 8049a74:	c7 40 14 20 74 6f 20 	movl   $0x206f7420,0x14(%eax)
 8049a7b:	c7 40 18 72 65 61 64 	movl   $0x64616572,0x18(%eax)
 8049a82:	c7 40 1c 20 73 74 61 	movl   $0x61747320,0x1c(%eax)
 8049a89:	c7 40 20 74 75 73 20 	movl   $0x20737574,0x20(%eax)
 8049a90:	c7 40 24 6d 65 73 73 	movl   $0x7373656d,0x24(%eax)
 8049a97:	c7 40 28 61 67 65 20 	movl   $0x20656761,0x28(%eax)
 8049a9e:	c7 40 2c 66 72 6f 6d 	movl   $0x6d6f7266,0x2c(%eax)
 8049aa5:	c7 40 30 20 73 65 72 	movl   $0x72657320,0x30(%eax)
 8049aac:	c7 40 34 76 65 72 00 	movl   $0x726576,0x34(%eax)
 8049ab3:	83 ec 0c             	sub    $0xc,%esp
 8049ab6:	55                   	push   %ebp
 8049ab7:	e8 e4 ed ff ff       	call   80488a0 <close@plt>
 8049abc:	83 c4 10             	add    $0x10,%esp
 8049abf:	b8 ff ff ff ff       	mov    $0xffffffff,%eax
 8049ac4:	e9 66 ff ff ff       	jmp    8049a2f <submitr+0x697>
 8049ac9:	a1 bc a2 04 08       	mov    0x804a2bc,%eax
 8049ace:	8b 5c 24 14          	mov    0x14(%esp),%ebx
 8049ad2:	89 03                	mov    %eax,(%ebx)
 8049ad4:	a1 fb a2 04 08       	mov    0x804a2fb,%eax
 8049ad9:	89 43 3f             	mov    %eax,0x3f(%ebx)
 8049adc:	8d 7b 04             	lea    0x4(%ebx),%edi
 8049adf:	83 e7 fc             	and    $0xfffffffc,%edi
 8049ae2:	29 fb                	sub    %edi,%ebx
 8049ae4:	89 d8                	mov    %ebx,%eax
 8049ae6:	be bc a2 04 08       	mov    $0x804a2bc,%esi
 8049aeb:	29 de                	sub    %ebx,%esi
 8049aed:	83 c0 43             	add    $0x43,%eax
 8049af0:	c1 e8 02             	shr    $0x2,%eax
 8049af3:	89 c1                	mov    %eax,%ecx
 8049af5:	f3 a5                	rep movsl %ds:(%esi),%es:(%edi)
 8049af7:	83 ec 0c             	sub    $0xc,%esp
 8049afa:	55                   	push   %ebp
 8049afb:	e8 a0 ed ff ff       	call   80488a0 <close@plt>
 8049b00:	83 c4 10             	add    $0x10,%esp
 8049b03:	b8 ff ff ff ff       	mov    $0xffffffff,%eax
 8049b08:	e9 22 ff ff ff       	jmp    8049a2f <submitr+0x697>
 8049b0d:	8d 84 24 4c 40 00 00 	lea    0x404c(%esp),%eax
 8049b14:	50                   	push   %eax
 8049b15:	ff 74 24 14          	pushl  0x14(%esp)
 8049b19:	ff 74 24 14          	pushl  0x14(%esp)
 8049b1d:	ff 74 24 14          	pushl  0x14(%esp)
 8049b21:	68 00 a3 04 08       	push   $0x804a300
 8049b26:	68 00 20 00 00       	push   $0x2000
 8049b2b:	6a 01                	push   $0x1
 8049b2d:	8d bc 24 68 20 00 00 	lea    0x2068(%esp),%edi
 8049b34:	57                   	push   %edi
 8049b35:	e8 86 ed ff ff       	call   80488c0 <__sprintf_chk@plt>
 8049b3a:	b8 00 00 00 00       	mov    $0x0,%eax
 8049b3f:	b9 ff ff ff ff       	mov    $0xffffffff,%ecx
 8049b44:	f2 ae                	repnz scas %es:(%edi),%al
 8049b46:	f7 d1                	not    %ecx
 8049b48:	8d 41 ff             	lea    -0x1(%ecx),%eax
 8049b4b:	89 44 24 28          	mov    %eax,0x28(%esp)
 8049b4f:	83 c4 20             	add    $0x20,%esp
 8049b52:	89 c3                	mov    %eax,%ebx
 8049b54:	8d b4 24 4c 20 00 00 	lea    0x204c(%esp),%esi
 8049b5b:	bf 00 00 00 00       	mov    $0x0,%edi
 8049b60:	85 c0                	test   %eax,%eax
 8049b62:	0f 85 f5 fb ff ff    	jne    804975d <submitr+0x3c5>
 8049b68:	e9 1f fc ff ff       	jmp    804978c <submitr+0x3f4>
 8049b6d:	e8 1e ec ff ff       	call   8048790 <__stack_chk_fail@plt>

08049b72 <init_timeout>:
 8049b72:	53                   	push   %ebx
 8049b73:	83 ec 08             	sub    $0x8,%esp
 8049b76:	8b 5c 24 10          	mov    0x10(%esp),%ebx
 8049b7a:	85 db                	test   %ebx,%ebx
 8049b7c:	74 24                	je     8049ba2 <init_timeout+0x30>
 8049b7e:	83 ec 08             	sub    $0x8,%esp
 8049b81:	68 c4 92 04 08       	push   $0x80492c4
 8049b86:	6a 0e                	push   $0xe
 8049b88:	e8 d3 eb ff ff       	call   8048760 <signal@plt>
 8049b8d:	85 db                	test   %ebx,%ebx
 8049b8f:	b8 00 00 00 00       	mov    $0x0,%eax
 8049b94:	0f 48 d8             	cmovs  %eax,%ebx
 8049b97:	89 1c 24             	mov    %ebx,(%esp)
 8049b9a:	e8 e1 eb ff ff       	call   8048780 <alarm@plt>
 8049b9f:	83 c4 10             	add    $0x10,%esp
 8049ba2:	83 c4 08             	add    $0x8,%esp
 8049ba5:	5b                   	pop    %ebx
 8049ba6:	c3                   	ret    

08049ba7 <init_driver>:
 8049ba7:	57                   	push   %edi
 8049ba8:	56                   	push   %esi
 8049ba9:	53                   	push   %ebx
 8049baa:	83 ec 28             	sub    $0x28,%esp
 8049bad:	8b 74 24 38          	mov    0x38(%esp),%esi
 8049bb1:	65 a1 14 00 00 00    	mov    %gs:0x14,%eax
 8049bb7:	89 44 24 24          	mov    %eax,0x24(%esp)
 8049bbb:	31 c0                	xor    %eax,%eax
 8049bbd:	6a 01                	push   $0x1
 8049bbf:	6a 0d                	push   $0xd
 8049bc1:	e8 9a eb ff ff       	call   8048760 <signal@plt>
 8049bc6:	83 c4 08             	add    $0x8,%esp
 8049bc9:	6a 01                	push   $0x1
 8049bcb:	6a 1d                	push   $0x1d
 8049bcd:	e8 8e eb ff ff       	call   8048760 <signal@plt>
 8049bd2:	83 c4 08             	add    $0x8,%esp
 8049bd5:	6a 01                	push   $0x1
 8049bd7:	6a 1d                	push   $0x1d
 8049bd9:	e8 82 eb ff ff       	call   8048760 <signal@plt>
 8049bde:	83 c4 0c             	add    $0xc,%esp
 8049be1:	6a 00                	push   $0x0
 8049be3:	6a 01                	push   $0x1
 8049be5:	6a 02                	push   $0x2
 8049be7:	e8 64 ec ff ff       	call   8048850 <socket@plt>
 8049bec:	83 c4 10             	add    $0x10,%esp
 8049bef:	85 c0                	test   %eax,%eax
 8049bf1:	0f 88 a9 00 00 00    	js     8049ca0 <init_driver+0xf9>
 8049bf7:	89 c3                	mov    %eax,%ebx
 8049bf9:	83 ec 0c             	sub    $0xc,%esp
 8049bfc:	68 8c a3 04 08       	push   $0x804a38c
 8049c01:	e8 6a ec ff ff       	call   8048870 <gethostbyname@plt>
 8049c06:	83 c4 10             	add    $0x10,%esp
 8049c09:	85 c0                	test   %eax,%eax
 8049c0b:	0f 84 da 00 00 00    	je     8049ceb <init_driver+0x144>
 8049c11:	8d 7c 24 0c          	lea    0xc(%esp),%edi
 8049c15:	c7 44 24 0c 00 00 00 	movl   $0x0,0xc(%esp)
 8049c1c:	00 
 8049c1d:	c7 44 24 10 00 00 00 	movl   $0x0,0x10(%esp)
 8049c24:	00 
 8049c25:	c7 44 24 14 00 00 00 	movl   $0x0,0x14(%esp)
 8049c2c:	00 
 8049c2d:	c7 44 24 18 00 00 00 	movl   $0x0,0x18(%esp)
 8049c34:	00 
 8049c35:	66 c7 44 24 0c 02 00 	movw   $0x2,0xc(%esp)
 8049c3c:	6a 0c                	push   $0xc
 8049c3e:	ff 70 0c             	pushl  0xc(%eax)
 8049c41:	8b 40 10             	mov    0x10(%eax),%eax
 8049c44:	ff 30                	pushl  (%eax)
 8049c46:	8d 44 24 1c          	lea    0x1c(%esp),%eax
 8049c4a:	50                   	push   %eax
 8049c4b:	e8 80 eb ff ff       	call   80487d0 <__memmove_chk@plt>
 8049c50:	66 c7 44 24 1e 3b 6e 	movw   $0x6e3b,0x1e(%esp)
 8049c57:	83 c4 0c             	add    $0xc,%esp
 8049c5a:	6a 10                	push   $0x10
 8049c5c:	57                   	push   %edi
 8049c5d:	53                   	push   %ebx
 8049c5e:	e8 2d ec ff ff       	call   8048890 <connect@plt>
 8049c63:	83 c4 10             	add    $0x10,%esp
 8049c66:	85 c0                	test   %eax,%eax
 8049c68:	0f 88 e9 00 00 00    	js     8049d57 <init_driver+0x1b0>
 8049c6e:	83 ec 0c             	sub    $0xc,%esp
 8049c71:	53                   	push   %ebx
 8049c72:	e8 29 ec ff ff       	call   80488a0 <close@plt>
 8049c77:	66 c7 06 4f 4b       	movw   $0x4b4f,(%esi)
 8049c7c:	c6 46 02 00          	movb   $0x0,0x2(%esi)
 8049c80:	83 c4 10             	add    $0x10,%esp
 8049c83:	b8 00 00 00 00       	mov    $0x0,%eax
 8049c88:	8b 54 24 1c          	mov    0x1c(%esp),%edx
 8049c8c:	65 33 15 14 00 00 00 	xor    %gs:0x14,%edx
 8049c93:	0f 85 eb 00 00 00    	jne    8049d84 <init_driver+0x1dd>
 8049c99:	83 c4 20             	add    $0x20,%esp
 8049c9c:	5b                   	pop    %ebx
 8049c9d:	5e                   	pop    %esi
 8049c9e:	5f                   	pop    %edi
 8049c9f:	c3                   	ret    
 8049ca0:	c7 06 45 72 72 6f    	movl   $0x6f727245,(%esi)
 8049ca6:	c7 46 04 72 3a 20 43 	movl   $0x43203a72,0x4(%esi)
 8049cad:	c7 46 08 6c 69 65 6e 	movl   $0x6e65696c,0x8(%esi)
 8049cb4:	c7 46 0c 74 20 75 6e 	movl   $0x6e752074,0xc(%esi)
 8049cbb:	c7 46 10 61 62 6c 65 	movl   $0x656c6261,0x10(%esi)
 8049cc2:	c7 46 14 20 74 6f 20 	movl   $0x206f7420,0x14(%esi)
 8049cc9:	c7 46 18 63 72 65 61 	movl   $0x61657263,0x18(%esi)
 8049cd0:	c7 46 1c 74 65 20 73 	movl   $0x73206574,0x1c(%esi)
 8049cd7:	c7 46 20 6f 63 6b 65 	movl   $0x656b636f,0x20(%esi)
 8049cde:	66 c7 46 24 74 00    	movw   $0x74,0x24(%esi)
 8049ce4:	b8 ff ff ff ff       	mov    $0xffffffff,%eax
 8049ce9:	eb 9d                	jmp    8049c88 <init_driver+0xe1>
 8049ceb:	c7 06 45 72 72 6f    	movl   $0x6f727245,(%esi)
 8049cf1:	c7 46 04 72 3a 20 44 	movl   $0x44203a72,0x4(%esi)
 8049cf8:	c7 46 08 4e 53 20 69 	movl   $0x6920534e,0x8(%esi)
 8049cff:	c7 46 0c 73 20 75 6e 	movl   $0x6e752073,0xc(%esi)
 8049d06:	c7 46 10 61 62 6c 65 	movl   $0x656c6261,0x10(%esi)
 8049d0d:	c7 46 14 20 74 6f 20 	movl   $0x206f7420,0x14(%esi)
 8049d14:	c7 46 18 72 65 73 6f 	movl   $0x6f736572,0x18(%esi)
 8049d1b:	c7 46 1c 6c 76 65 20 	movl   $0x2065766c,0x1c(%esi)
 8049d22:	c7 46 20 73 65 72 76 	movl   $0x76726573,0x20(%esi)
 8049d29:	c7 46 24 65 72 20 61 	movl   $0x61207265,0x24(%esi)
 8049d30:	c7 46 28 64 64 72 65 	movl   $0x65726464,0x28(%esi)
 8049d37:	66 c7 46 2c 73 73    	movw   $0x7373,0x2c(%esi)
 8049d3d:	c6 46 2e 00          	movb   $0x0,0x2e(%esi)
 8049d41:	83 ec 0c             	sub    $0xc,%esp
 8049d44:	53                   	push   %ebx
 8049d45:	e8 56 eb ff ff       	call   80488a0 <close@plt>
 8049d4a:	83 c4 10             	add    $0x10,%esp
 8049d4d:	b8 ff ff ff ff       	mov    $0xffffffff,%eax
 8049d52:	e9 31 ff ff ff       	jmp    8049c88 <init_driver+0xe1>
 8049d57:	83 ec 0c             	sub    $0xc,%esp
 8049d5a:	68 8c a3 04 08       	push   $0x804a38c
 8049d5f:	68 4c a3 04 08       	push   $0x804a34c
 8049d64:	6a ff                	push   $0xffffffff
 8049d66:	6a 01                	push   $0x1
 8049d68:	56                   	push   %esi
 8049d69:	e8 52 eb ff ff       	call   80488c0 <__sprintf_chk@plt>
 8049d6e:	83 c4 14             	add    $0x14,%esp
 8049d71:	53                   	push   %ebx
 8049d72:	e8 29 eb ff ff       	call   80488a0 <close@plt>
 8049d77:	83 c4 10             	add    $0x10,%esp
 8049d7a:	b8 ff ff ff ff       	mov    $0xffffffff,%eax
 8049d7f:	e9 04 ff ff ff       	jmp    8049c88 <init_driver+0xe1>
 8049d84:	e8 07 ea ff ff       	call   8048790 <__stack_chk_fail@plt>

08049d89 <driver_post>:
 8049d89:	53                   	push   %ebx
 8049d8a:	83 ec 08             	sub    $0x8,%esp
 8049d8d:	8b 54 24 10          	mov    0x10(%esp),%edx
 8049d91:	8b 44 24 18          	mov    0x18(%esp),%eax
 8049d95:	8b 5c 24 1c          	mov    0x1c(%esp),%ebx
 8049d99:	85 c0                	test   %eax,%eax
 8049d9b:	75 17                	jne    8049db4 <driver_post+0x2b>
 8049d9d:	85 d2                	test   %edx,%edx
 8049d9f:	74 05                	je     8049da6 <driver_post+0x1d>
 8049da1:	80 3a 00             	cmpb   $0x0,(%edx)
 8049da4:	75 34                	jne    8049dda <driver_post+0x51>
 8049da6:	66 c7 03 4f 4b       	movw   $0x4b4f,(%ebx)
 8049dab:	c6 43 02 00          	movb   $0x0,0x2(%ebx)
 8049daf:	83 c4 08             	add    $0x8,%esp
 8049db2:	5b                   	pop    %ebx
 8049db3:	c3                   	ret    
 8049db4:	83 ec 04             	sub    $0x4,%esp
 8049db7:	ff 74 24 18          	pushl  0x18(%esp)
 8049dbb:	68 9a a3 04 08       	push   $0x804a39a
 8049dc0:	6a 01                	push   $0x1
 8049dc2:	e8 79 ea ff ff       	call   8048840 <__printf_chk@plt>
 8049dc7:	66 c7 03 4f 4b       	movw   $0x4b4f,(%ebx)
 8049dcc:	c6 43 02 00          	movb   $0x0,0x2(%ebx)
 8049dd0:	83 c4 10             	add    $0x10,%esp
 8049dd3:	b8 00 00 00 00       	mov    $0x0,%eax
 8049dd8:	eb d5                	jmp    8049daf <driver_post+0x26>
 8049dda:	83 ec 04             	sub    $0x4,%esp
 8049ddd:	53                   	push   %ebx
 8049dde:	ff 74 24 1c          	pushl  0x1c(%esp)
 8049de2:	68 b1 a3 04 08       	push   $0x804a3b1
 8049de7:	52                   	push   %edx
 8049de8:	68 b9 a3 04 08       	push   $0x804a3b9
 8049ded:	68 6e 3b 00 00       	push   $0x3b6e
 8049df2:	68 8c a3 04 08       	push   $0x804a38c
 8049df7:	e8 9c f5 ff ff       	call   8049398 <submitr>
 8049dfc:	83 c4 20             	add    $0x20,%esp
 8049dff:	eb ae                	jmp    8049daf <driver_post+0x26>
 8049e01:	66 90                	xchg   %ax,%ax
 8049e03:	66 90                	xchg   %ax,%ax
 8049e05:	66 90                	xchg   %ax,%ax
 8049e07:	66 90                	xchg   %ax,%ax
 8049e09:	66 90                	xchg   %ax,%ax
 8049e0b:	66 90                	xchg   %ax,%ax
 8049e0d:	66 90                	xchg   %ax,%ax
 8049e0f:	90                   	nop

08049e10 <__libc_csu_init>:
 8049e10:	55                   	push   %ebp
 8049e11:	57                   	push   %edi
 8049e12:	56                   	push   %esi
 8049e13:	53                   	push   %ebx
 8049e14:	e8 f7 ea ff ff       	call   8048910 <__x86.get_pc_thunk.bx>
 8049e19:	81 c3 e7 21 00 00    	add    $0x21e7,%ebx
 8049e1f:	83 ec 0c             	sub    $0xc,%esp
 8049e22:	8b 6c 24 20          	mov    0x20(%esp),%ebp
 8049e26:	8d b3 0c ff ff ff    	lea    -0xf4(%ebx),%esi
 8049e2c:	e8 c3 e8 ff ff       	call   80486f4 <_init>
 8049e31:	8d 83 08 ff ff ff    	lea    -0xf8(%ebx),%eax
 8049e37:	29 c6                	sub    %eax,%esi
 8049e39:	c1 fe 02             	sar    $0x2,%esi
 8049e3c:	85 f6                	test   %esi,%esi
 8049e3e:	74 25                	je     8049e65 <__libc_csu_init+0x55>
 8049e40:	31 ff                	xor    %edi,%edi
 8049e42:	8d b6 00 00 00 00    	lea    0x0(%esi),%esi
 8049e48:	83 ec 04             	sub    $0x4,%esp
 8049e4b:	ff 74 24 2c          	pushl  0x2c(%esp)
 8049e4f:	ff 74 24 2c          	pushl  0x2c(%esp)
 8049e53:	55                   	push   %ebp
 8049e54:	ff 94 bb 08 ff ff ff 	call   *-0xf8(%ebx,%edi,4)
 8049e5b:	83 c7 01             	add    $0x1,%edi
 8049e5e:	83 c4 10             	add    $0x10,%esp
 8049e61:	39 fe                	cmp    %edi,%esi
 8049e63:	75 e3                	jne    8049e48 <__libc_csu_init+0x38>
 8049e65:	83 c4 0c             	add    $0xc,%esp
 8049e68:	5b                   	pop    %ebx
 8049e69:	5e                   	pop    %esi
 8049e6a:	5f                   	pop    %edi
 8049e6b:	5d                   	pop    %ebp
 8049e6c:	c3                   	ret    
 8049e6d:	8d 76 00             	lea    0x0(%esi),%esi

08049e70 <__libc_csu_fini>:
 8049e70:	f3 c3                	repz ret 

Disassembly of section .fini:

08049e74 <_fini>:
 8049e74:	53                   	push   %ebx
 8049e75:	83 ec 08             	sub    $0x8,%esp
 8049e78:	e8 93 ea ff ff       	call   8048910 <__x86.get_pc_thunk.bx>
 8049e7d:	81 c3 83 21 00 00    	add    $0x2183,%ebx
 8049e83:	83 c4 08             	add    $0x8,%esp
 8049e86:	5b                   	pop    %ebx
 8049e87:	c3                   	ret    
